
nuclear.exe:     file format pei-i386


Disassembly of section .text:

00401000 <.text>:
  401000:	83 ec 1c             	sub    $0x1c,%esp
  401003:	8b 44 24 20          	mov    0x20(%esp),%eax
  401007:	8b 00                	mov    (%eax),%eax
  401009:	8b 00                	mov    (%eax),%eax
  40100b:	3d 93 00 00 c0       	cmp    $0xc0000093,%eax
  401010:	74 1b                	je     40102d <.text+0x2d>
  401012:	77 4c                	ja     401060 <.text+0x60>
  401014:	3d 1d 00 00 c0       	cmp    $0xc000001d,%eax
  401019:	0f 84 cc 00 00 00    	je     4010eb <.text+0xeb>
  40101f:	76 7f                	jbe    4010a0 <.text+0xa0>
  401021:	05 73 ff ff 3f       	add    $0x3fffff73,%eax
  401026:	31 d2                	xor    %edx,%edx
  401028:	83 f8 04             	cmp    $0x4,%eax
  40102b:	77 27                	ja     401054 <.text+0x54>
  40102d:	c7 44 24 04 00 00 00 	movl   $0x0,0x4(%esp)
  401034:	00 
  401035:	c7 04 24 08 00 00 00 	movl   $0x8,(%esp)
  40103c:	e8 63 35 00 00       	call   4045a4 <_signal>
  401041:	83 f8 01             	cmp    $0x1,%eax
  401044:	0f 84 d6 00 00 00    	je     401120 <.text+0x120>
  40104a:	85 c0                	test   %eax,%eax
  40104c:	0f 85 fe 00 00 00    	jne    401150 <.text+0x150>
  401052:	31 d2                	xor    %edx,%edx
  401054:	89 d0                	mov    %edx,%eax
  401056:	83 c4 1c             	add    $0x1c,%esp
  401059:	c2 04 00             	ret    $0x4
  40105c:	8d 74 26 00          	lea    0x0(%esi,%eiz,1),%esi
  401060:	3d 94 00 00 c0       	cmp    $0xc0000094,%eax
  401065:	75 79                	jne    4010e0 <.text+0xe0>
  401067:	c7 44 24 04 00 00 00 	movl   $0x0,0x4(%esp)
  40106e:	00 
  40106f:	c7 04 24 08 00 00 00 	movl   $0x8,(%esp)
  401076:	e8 29 35 00 00       	call   4045a4 <_signal>
  40107b:	83 f8 01             	cmp    $0x1,%eax
  40107e:	75 ca                	jne    40104a <.text+0x4a>
  401080:	c7 44 24 04 01 00 00 	movl   $0x1,0x4(%esp)
  401087:	00 
  401088:	c7 04 24 08 00 00 00 	movl   $0x8,(%esp)
  40108f:	e8 10 35 00 00       	call   4045a4 <_signal>
  401094:	ba ff ff ff ff       	mov    $0xffffffff,%edx
  401099:	eb b9                	jmp    401054 <.text+0x54>
  40109b:	8d 74 26 00          	lea    0x0(%esi,%eiz,1),%esi
  40109f:	90                   	nop
  4010a0:	3d 05 00 00 c0       	cmp    $0xc0000005,%eax
  4010a5:	75 ab                	jne    401052 <.text+0x52>
  4010a7:	c7 44 24 04 00 00 00 	movl   $0x0,0x4(%esp)
  4010ae:	00 
  4010af:	c7 04 24 0b 00 00 00 	movl   $0xb,(%esp)
  4010b6:	e8 e9 34 00 00       	call   4045a4 <_signal>
  4010bb:	83 f8 01             	cmp    $0x1,%eax
  4010be:	0f 84 9f 00 00 00    	je     401163 <.text+0x163>
  4010c4:	85 c0                	test   %eax,%eax
  4010c6:	74 8a                	je     401052 <.text+0x52>
  4010c8:	c7 04 24 0b 00 00 00 	movl   $0xb,(%esp)
  4010cf:	ff d0                	call   *%eax
  4010d1:	ba ff ff ff ff       	mov    $0xffffffff,%edx
  4010d6:	e9 79 ff ff ff       	jmp    401054 <.text+0x54>
  4010db:	8d 74 26 00          	lea    0x0(%esi,%eiz,1),%esi
  4010df:	90                   	nop
  4010e0:	3d 96 00 00 c0       	cmp    $0xc0000096,%eax
  4010e5:	0f 85 67 ff ff ff    	jne    401052 <.text+0x52>
  4010eb:	c7 44 24 04 00 00 00 	movl   $0x0,0x4(%esp)
  4010f2:	00 
  4010f3:	c7 04 24 04 00 00 00 	movl   $0x4,(%esp)
  4010fa:	e8 a5 34 00 00       	call   4045a4 <_signal>
  4010ff:	83 f8 01             	cmp    $0x1,%eax
  401102:	74 7b                	je     40117f <.text+0x17f>
  401104:	85 c0                	test   %eax,%eax
  401106:	0f 84 46 ff ff ff    	je     401052 <.text+0x52>
  40110c:	c7 04 24 04 00 00 00 	movl   $0x4,(%esp)
  401113:	ff d0                	call   *%eax
  401115:	ba ff ff ff ff       	mov    $0xffffffff,%edx
  40111a:	e9 35 ff ff ff       	jmp    401054 <.text+0x54>
  40111f:	90                   	nop
  401120:	c7 44 24 04 01 00 00 	movl   $0x1,0x4(%esp)
  401127:	00 
  401128:	c7 04 24 08 00 00 00 	movl   $0x8,(%esp)
  40112f:	e8 70 34 00 00       	call   4045a4 <_signal>
  401134:	c7 04 24 00 00 00 00 	movl   $0x0,(%esp)
  40113b:	e8 90 16 00 00       	call   4027d0 <_fesetenv>
  401140:	ba ff ff ff ff       	mov    $0xffffffff,%edx
  401145:	e9 0a ff ff ff       	jmp    401054 <.text+0x54>
  40114a:	8d b6 00 00 00 00    	lea    0x0(%esi),%esi
  401150:	c7 04 24 08 00 00 00 	movl   $0x8,(%esp)
  401157:	ff d0                	call   *%eax
  401159:	ba ff ff ff ff       	mov    $0xffffffff,%edx
  40115e:	e9 f1 fe ff ff       	jmp    401054 <.text+0x54>
  401163:	c7 44 24 04 01 00 00 	movl   $0x1,0x4(%esp)
  40116a:	00 
  40116b:	c7 04 24 0b 00 00 00 	movl   $0xb,(%esp)
  401172:	e8 2d 34 00 00       	call   4045a4 <_signal>
  401177:	83 ca ff             	or     $0xffffffff,%edx
  40117a:	e9 d5 fe ff ff       	jmp    401054 <.text+0x54>
  40117f:	c7 44 24 04 01 00 00 	movl   $0x1,0x4(%esp)
  401186:	00 
  401187:	c7 04 24 04 00 00 00 	movl   $0x4,(%esp)
  40118e:	e8 11 34 00 00       	call   4045a4 <_signal>
  401193:	83 ca ff             	or     $0xffffffff,%edx
  401196:	e9 b9 fe ff ff       	jmp    401054 <.text+0x54>
  40119b:	8d 74 26 00          	lea    0x0(%esi,%eiz,1),%esi
  40119f:	90                   	nop
  4011a0:	53                   	push   %ebx
  4011a1:	83 ec 18             	sub    $0x18,%esp
  4011a4:	a1 48 63 40 00       	mov    0x406348,%eax
  4011a9:	85 c0                	test   %eax,%eax
  4011ab:	74 1c                	je     4011c9 <.text+0x1c9>
  4011ad:	c7 44 24 08 00 00 00 	movl   $0x0,0x8(%esp)
  4011b4:	00 
  4011b5:	c7 44 24 04 02 00 00 	movl   $0x2,0x4(%esp)
  4011bc:	00 
  4011bd:	c7 04 24 00 00 00 00 	movl   $0x0,(%esp)
  4011c4:	ff d0                	call   *%eax
  4011c6:	83 ec 0c             	sub    $0xc,%esp
  4011c9:	c7 04 24 00 10 40 00 	movl   $0x401000,(%esp)
  4011d0:	e8 77 34 00 00       	call   40464c <_SetUnhandledExceptionFilter@4>
  4011d5:	83 ec 04             	sub    $0x4,%esp
  4011d8:	e8 b3 0d 00 00       	call   401f90 <___cpu_features_init>
  4011dd:	a1 08 50 40 00       	mov    0x405008,%eax
  4011e2:	89 04 24             	mov    %eax,(%esp)
  4011e5:	e8 e6 15 00 00       	call   4027d0 <_fesetenv>
  4011ea:	e8 01 0a 00 00       	call   401bf0 <__setargv>
  4011ef:	a1 24 80 40 00       	mov    0x408024,%eax
  4011f4:	85 c0                	test   %eax,%eax
  4011f6:	75 4a                	jne    401242 <.text+0x242>
  4011f8:	e8 1f 34 00 00       	call   40461c <___p__fmode>
  4011fd:	8b 15 0c 50 40 00    	mov    0x40500c,%edx
  401203:	89 10                	mov    %edx,(%eax)
  401205:	e8 d6 13 00 00       	call   4025e0 <__pei386_runtime_relocator>
  40120a:	83 e4 f0             	and    $0xfffffff0,%esp
  40120d:	e8 2e 0f 00 00       	call   402140 <___main>
  401212:	e8 0d 34 00 00       	call   404624 <___p__environ>
  401217:	8b 00                	mov    (%eax),%eax
  401219:	89 44 24 08          	mov    %eax,0x8(%esp)
  40121d:	a1 00 80 40 00       	mov    0x408000,%eax
  401222:	89 44 24 04          	mov    %eax,0x4(%esp)
  401226:	a1 04 80 40 00       	mov    0x408004,%eax
  40122b:	89 04 24             	mov    %eax,(%esp)
  40122e:	e8 82 05 00 00       	call   4017b5 <_main>
  401233:	89 c3                	mov    %eax,%ebx
  401235:	e8 da 33 00 00       	call   404614 <__cexit>
  40123a:	89 1c 24             	mov    %ebx,(%esp)
  40123d:	e8 6a 34 00 00       	call   4046ac <_ExitProcess@4>
  401242:	8b 1d 30 92 40 00    	mov    0x409230,%ebx
  401248:	89 44 24 04          	mov    %eax,0x4(%esp)
  40124c:	a3 0c 50 40 00       	mov    %eax,0x40500c
  401251:	8b 43 10             	mov    0x10(%ebx),%eax
  401254:	89 04 24             	mov    %eax,(%esp)
  401257:	e8 90 33 00 00       	call   4045ec <__setmode>
  40125c:	a1 24 80 40 00       	mov    0x408024,%eax
  401261:	89 44 24 04          	mov    %eax,0x4(%esp)
  401265:	8b 43 30             	mov    0x30(%ebx),%eax
  401268:	89 04 24             	mov    %eax,(%esp)
  40126b:	e8 7c 33 00 00       	call   4045ec <__setmode>
  401270:	a1 24 80 40 00       	mov    0x408024,%eax
  401275:	89 44 24 04          	mov    %eax,0x4(%esp)
  401279:	8b 43 50             	mov    0x50(%ebx),%eax
  40127c:	89 04 24             	mov    %eax,(%esp)
  40127f:	e8 68 33 00 00       	call   4045ec <__setmode>
  401284:	e9 6f ff ff ff       	jmp    4011f8 <.text+0x1f8>
  401289:	8d b4 26 00 00 00 00 	lea    0x0(%esi,%eiz,1),%esi

00401290 <__mingw32_init_mainargs>:
  401290:	83 ec 3c             	sub    $0x3c,%esp
  401293:	8d 44 24 2c          	lea    0x2c(%esp),%eax
  401297:	c7 44 24 04 00 80 40 	movl   $0x408000,0x4(%esp)
  40129e:	00 
  40129f:	89 44 24 10          	mov    %eax,0x10(%esp)
  4012a3:	a1 04 50 40 00       	mov    0x405004,%eax
  4012a8:	c7 04 24 04 80 40 00 	movl   $0x408004,(%esp)
  4012af:	83 e0 01             	and    $0x1,%eax
  4012b2:	c7 44 24 2c 00 00 00 	movl   $0x0,0x2c(%esp)
  4012b9:	00 
  4012ba:	89 44 24 0c          	mov    %eax,0xc(%esp)
  4012be:	8d 44 24 28          	lea    0x28(%esp),%eax
  4012c2:	89 44 24 08          	mov    %eax,0x8(%esp)
  4012c6:	e8 61 33 00 00       	call   40462c <___getmainargs>
  4012cb:	83 c4 3c             	add    $0x3c,%esp
  4012ce:	c3                   	ret    
  4012cf:	90                   	nop

004012d0 <_mainCRTStartup>:
  4012d0:	83 ec 1c             	sub    $0x1c,%esp
  4012d3:	c7 04 24 01 00 00 00 	movl   $0x1,(%esp)
  4012da:	ff 15 1c 92 40 00    	call   *0x40921c
  4012e0:	e8 bb fe ff ff       	call   4011a0 <.text+0x1a0>
  4012e5:	8d b4 26 00 00 00 00 	lea    0x0(%esi,%eiz,1),%esi
  4012ec:	8d 74 26 00          	lea    0x0(%esi,%eiz,1),%esi

004012f0 <_WinMainCRTStartup>:
  4012f0:	83 ec 1c             	sub    $0x1c,%esp
  4012f3:	c7 04 24 02 00 00 00 	movl   $0x2,(%esp)
  4012fa:	ff 15 1c 92 40 00    	call   *0x40921c
  401300:	e8 9b fe ff ff       	call   4011a0 <.text+0x1a0>
  401305:	8d b4 26 00 00 00 00 	lea    0x0(%esi,%eiz,1),%esi
  40130c:	8d 74 26 00          	lea    0x0(%esi,%eiz,1),%esi

00401310 <_atexit>:
  401310:	ff 25 4c 92 40 00    	jmp    *0x40924c
  401316:	8d b4 26 00 00 00 00 	lea    0x0(%esi,%eiz,1),%esi
  40131d:	8d 76 00             	lea    0x0(%esi),%esi

00401320 <__onexit>:
  401320:	ff 25 3c 92 40 00    	jmp    *0x40923c
  401326:	90                   	nop
  401327:	90                   	nop
  401328:	90                   	nop
  401329:	90                   	nop
  40132a:	90                   	nop
  40132b:	90                   	nop
  40132c:	90                   	nop
  40132d:	90                   	nop
  40132e:	90                   	nop
  40132f:	90                   	nop

00401330 <___gcc_register_frame>:
  401330:	55                   	push   %ebp
  401331:	89 e5                	mov    %esp,%ebp
  401333:	56                   	push   %esi
  401334:	53                   	push   %ebx
  401335:	83 ec 10             	sub    $0x10,%esp
  401338:	c7 04 24 00 60 40 00 	movl   $0x406000,(%esp)
  40133f:	e8 30 33 00 00       	call   404674 <_GetModuleHandleA@4>
  401344:	83 ec 04             	sub    $0x4,%esp
  401347:	85 c0                	test   %eax,%eax
  401349:	74 75                	je     4013c0 <___gcc_register_frame+0x90>
  40134b:	c7 04 24 00 60 40 00 	movl   $0x406000,(%esp)
  401352:	89 c3                	mov    %eax,%ebx
  401354:	e8 fb 32 00 00       	call   404654 <_LoadLibraryA@4>
  401359:	83 ec 04             	sub    $0x4,%esp
  40135c:	a3 74 80 40 00       	mov    %eax,0x408074
  401361:	c7 44 24 04 13 60 40 	movl   $0x406013,0x4(%esp)
  401368:	00 
  401369:	89 1c 24             	mov    %ebx,(%esp)
  40136c:	e8 fb 32 00 00       	call   40466c <_GetProcAddress@8>
  401371:	83 ec 08             	sub    $0x8,%esp
  401374:	89 c6                	mov    %eax,%esi
  401376:	c7 44 24 04 29 60 40 	movl   $0x406029,0x4(%esp)
  40137d:	00 
  40137e:	89 1c 24             	mov    %ebx,(%esp)
  401381:	e8 e6 32 00 00       	call   40466c <_GetProcAddress@8>
  401386:	a3 00 50 40 00       	mov    %eax,0x405000
  40138b:	83 ec 08             	sub    $0x8,%esp
  40138e:	85 f6                	test   %esi,%esi
  401390:	74 11                	je     4013a3 <___gcc_register_frame+0x73>
  401392:	c7 44 24 04 08 80 40 	movl   $0x408008,0x4(%esp)
  401399:	00 
  40139a:	c7 04 24 c8 70 40 00 	movl   $0x4070c8,(%esp)
  4013a1:	ff d6                	call   *%esi
  4013a3:	c7 04 24 e0 13 40 00 	movl   $0x4013e0,(%esp)
  4013aa:	e8 61 ff ff ff       	call   401310 <_atexit>
  4013af:	8d 65 f8             	lea    -0x8(%ebp),%esp
  4013b2:	5b                   	pop    %ebx
  4013b3:	5e                   	pop    %esi
  4013b4:	5d                   	pop    %ebp
  4013b5:	c3                   	ret    
  4013b6:	8d b4 26 00 00 00 00 	lea    0x0(%esi,%eiz,1),%esi
  4013bd:	8d 76 00             	lea    0x0(%esi),%esi
  4013c0:	c7 05 00 50 40 00 28 	movl   $0x404528,0x405000
  4013c7:	45 40 00 
  4013ca:	be 20 45 40 00       	mov    $0x404520,%esi
  4013cf:	eb bd                	jmp    40138e <___gcc_register_frame+0x5e>
  4013d1:	8d b4 26 00 00 00 00 	lea    0x0(%esi,%eiz,1),%esi
  4013d8:	8d b4 26 00 00 00 00 	lea    0x0(%esi,%eiz,1),%esi
  4013df:	90                   	nop

004013e0 <___gcc_deregister_frame>:
  4013e0:	55                   	push   %ebp
  4013e1:	89 e5                	mov    %esp,%ebp
  4013e3:	83 ec 18             	sub    $0x18,%esp
  4013e6:	a1 00 50 40 00       	mov    0x405000,%eax
  4013eb:	85 c0                	test   %eax,%eax
  4013ed:	74 09                	je     4013f8 <___gcc_deregister_frame+0x18>
  4013ef:	c7 04 24 c8 70 40 00 	movl   $0x4070c8,(%esp)
  4013f6:	ff d0                	call   *%eax
  4013f8:	a1 74 80 40 00       	mov    0x408074,%eax
  4013fd:	85 c0                	test   %eax,%eax
  4013ff:	74 0b                	je     40140c <___gcc_deregister_frame+0x2c>
  401401:	89 04 24             	mov    %eax,(%esp)
  401404:	e8 83 32 00 00       	call   40468c <_FreeLibrary@4>
  401409:	83 ec 04             	sub    $0x4,%esp
  40140c:	c9                   	leave  
  40140d:	c3                   	ret    
  40140e:	90                   	nop
  40140f:	90                   	nop

00401410 <__Z6SecretB5cxx11v>:
  401410:	55                   	push   %ebp
  401411:	89 e5                	mov    %esp,%ebp
  401413:	57                   	push   %edi
  401414:	53                   	push   %ebx
  401415:	81 ec b0 00 00 00    	sub    $0xb0,%esp
  40141b:	c7 45 bc 14 00 00 00 	movl   $0x14,-0x44(%ebp)
  401422:	c7 45 c0 0f 00 00 00 	movl   $0xf,-0x40(%ebp)
  401429:	c7 45 c4 0a 00 00 00 	movl   $0xa,-0x3c(%ebp)
  401430:	c7 45 c8 05 00 00 00 	movl   $0x5,-0x38(%ebp)
  401437:	c7 45 cc 03 00 00 00 	movl   $0x3,-0x34(%ebp)
  40143e:	c7 45 d0 06 00 00 00 	movl   $0x6,-0x30(%ebp)
  401445:	c7 45 d4 09 00 00 00 	movl   $0x9,-0x2c(%ebp)
  40144c:	c7 45 d8 0c 00 00 00 	movl   $0xc,-0x28(%ebp)
  401453:	c7 45 dc 10 00 00 00 	movl   $0x10,-0x24(%ebp)
  40145a:	c7 45 e0 12 00 00 00 	movl   $0x12,-0x20(%ebp)
  401461:	c7 45 e4 13 00 00 00 	movl   $0x13,-0x1c(%ebp)
  401468:	c7 85 58 ff ff ff 46 	movl   $0x373c3f46,-0xa8(%ebp)
  40146f:	3f 3c 37 
  401472:	c7 85 5c ff ff ff 62 	movl   $0x4f5e5462,-0xa4(%ebp)
  401479:	54 5e 4f 
  40147c:	c7 85 60 ff ff ff 41 	movl   $0x66474541,-0xa0(%ebp)
  401483:	45 47 66 
  401486:	c7 85 64 ff ff ff 50 	movl   $0x33585850,-0x9c(%ebp)
  40148d:	58 58 33 
  401490:	c7 85 68 ff ff ff 53 	movl   $0x62406853,-0x98(%ebp)
  401497:	68 40 62 
  40149a:	c7 85 6c ff ff ff 45 	movl   $0x3f577245,-0x94(%ebp)
  4014a1:	72 57 3f 
  4014a4:	c7 85 70 ff ff ff 57 	movl   $0x4d513657,-0x90(%ebp)
  4014ab:	36 51 4d 
  4014ae:	c7 85 74 ff ff ff 00 	movl   $0x0,-0x8c(%ebp)
  4014b5:	00 00 00 
  4014b8:	8d 95 78 ff ff ff    	lea    -0x88(%ebp),%edx
  4014be:	b8 00 00 00 00       	mov    $0x0,%eax
  4014c3:	b9 11 00 00 00       	mov    $0x11,%ecx
  4014c8:	89 d7                	mov    %edx,%edi
  4014ca:	f3 ab                	rep stos %eax,%es:(%edi)
  4014cc:	c7 45 f0 00 00 00 00 	movl   $0x0,-0x10(%ebp)
  4014d3:	c7 45 ec 00 00 00 00 	movl   $0x0,-0x14(%ebp)
  4014da:	c7 45 f4 00 00 00 00 	movl   $0x0,-0xc(%ebp)
  4014e1:	8d 85 58 ff ff ff    	lea    -0xa8(%ebp),%eax
  4014e7:	89 04 24             	mov    %eax,(%esp)
  4014ea:	e8 9d 30 00 00       	call   40458c <_strlen>
  4014ef:	8b 55 f4             	mov    -0xc(%ebp),%edx
  4014f2:	39 d0                	cmp    %edx,%eax
  4014f4:	76 78                	jbe    40156e <__Z6SecretB5cxx11v+0x15e>
  4014f6:	8d 95 58 ff ff ff    	lea    -0xa8(%ebp),%edx
  4014fc:	8b 45 f4             	mov    -0xc(%ebp),%eax
  4014ff:	01 d0                	add    %edx,%eax
  401501:	0f b6 00             	movzbl (%eax),%eax
  401504:	84 c0                	test   %al,%al
  401506:	74 66                	je     40156e <__Z6SecretB5cxx11v+0x15e>
  401508:	8b 45 f0             	mov    -0x10(%ebp),%eax
  40150b:	83 f8 0a             	cmp    $0xa,%eax
  40150e:	76 07                	jbe    401517 <__Z6SecretB5cxx11v+0x107>
  401510:	c7 45 f0 00 00 00 00 	movl   $0x0,-0x10(%ebp)
  401517:	8d 95 58 ff ff ff    	lea    -0xa8(%ebp),%edx
  40151d:	8b 45 f4             	mov    -0xc(%ebp),%eax
  401520:	01 d0                	add    %edx,%eax
  401522:	0f b6 00             	movzbl (%eax),%eax
  401525:	3c 20                	cmp    $0x20,%al
  401527:	75 0e                	jne    401537 <__Z6SecretB5cxx11v+0x127>
  401529:	8d 95 58 ff ff ff    	lea    -0xa8(%ebp),%edx
  40152f:	8b 45 f4             	mov    -0xc(%ebp),%eax
  401532:	01 d0                	add    %edx,%eax
  401534:	c6 00 5f             	movb   $0x5f,(%eax)
  401537:	8d 95 58 ff ff ff    	lea    -0xa8(%ebp),%edx
  40153d:	8b 45 f4             	mov    -0xc(%ebp),%eax
  401540:	01 d0                	add    %edx,%eax
  401542:	0f b6 00             	movzbl (%eax),%eax
  401545:	89 c2                	mov    %eax,%edx
  401547:	8b 45 f0             	mov    -0x10(%ebp),%eax
  40154a:	8b 44 85 bc          	mov    -0x44(%ebp,%eax,4),%eax
  40154e:	29 c2                	sub    %eax,%edx
  401550:	89 d0                	mov    %edx,%eax
  401552:	89 c1                	mov    %eax,%ecx
  401554:	8d 95 58 ff ff ff    	lea    -0xa8(%ebp),%edx
  40155a:	8b 45 f4             	mov    -0xc(%ebp),%eax
  40155d:	01 d0                	add    %edx,%eax
  40155f:	88 08                	mov    %cl,(%eax)
  401561:	83 45 f0 01          	addl   $0x1,-0x10(%ebp)
  401565:	83 45 f4 01          	addl   $0x1,-0xc(%ebp)
  401569:	e9 73 ff ff ff       	jmp    4014e1 <__Z6SecretB5cxx11v+0xd1>
  40156e:	8d 45 eb             	lea    -0x15(%ebp),%eax
  401571:	89 c1                	mov    %eax,%ecx
  401573:	e8 60 06 00 00       	call   401bd8 <__ZNSaIcEC1Ev>
  401578:	8d 45 eb             	lea    -0x15(%ebp),%eax
  40157b:	89 44 24 04          	mov    %eax,0x4(%esp)
  40157f:	8d 85 58 ff ff ff    	lea    -0xa8(%ebp),%eax
  401585:	89 04 24             	mov    %eax,(%esp)
  401588:	8b 4d 08             	mov    0x8(%ebp),%ecx
  40158b:	e8 28 06 00 00       	call   401bb8 <__ZNSt7__cxx1112basic_stringIcSt11char_traitsIcESaIcEEC1EPKcRKS3_>
  401590:	83 ec 08             	sub    $0x8,%esp
  401593:	8d 45 eb             	lea    -0x15(%ebp),%eax
  401596:	89 c1                	mov    %eax,%ecx
  401598:	e8 33 06 00 00       	call   401bd0 <__ZNSaIcED1Ev>
  40159d:	eb 16                	jmp    4015b5 <__Z6SecretB5cxx11v+0x1a5>
  40159f:	89 c3                	mov    %eax,%ebx
  4015a1:	8d 45 eb             	lea    -0x15(%ebp),%eax
  4015a4:	89 c1                	mov    %eax,%ecx
  4015a6:	e8 25 06 00 00       	call   401bd0 <__ZNSaIcED1Ev>
  4015ab:	89 d8                	mov    %ebx,%eax
  4015ad:	89 04 24             	mov    %eax,(%esp)
  4015b0:	e8 7b 2f 00 00       	call   404530 <__Unwind_Resume>
  4015b5:	8b 45 08             	mov    0x8(%ebp),%eax
  4015b8:	8d 65 f8             	lea    -0x8(%ebp),%esp
  4015bb:	5b                   	pop    %ebx
  4015bc:	5f                   	pop    %edi
  4015bd:	5d                   	pop    %ebp
  4015be:	c3                   	ret    

004015bf <__Z9GetSecretv>:
  4015bf:	55                   	push   %ebp
  4015c0:	89 e5                	mov    %esp,%ebp
  4015c2:	53                   	push   %ebx
  4015c3:	83 ec 34             	sub    $0x34,%esp
  4015c6:	8d 45 e0             	lea    -0x20(%ebp),%eax
  4015c9:	89 04 24             	mov    %eax,(%esp)
  4015cc:	e8 3f fe ff ff       	call   401410 <__Z6SecretB5cxx11v>
  4015d1:	8d 45 e0             	lea    -0x20(%ebp),%eax
  4015d4:	89 44 24 04          	mov    %eax,0x4(%esp)
  4015d8:	c7                   	.byte 0xc7
  4015d9:	04 24                	add    $0x24,%al

004015db <__fu0___ZSt4cout>:
  4015db:	d0 92 40 00 e8 9c    	rclb   -0x6317ffc0(%edx)
  4015e1:	05 00 00 c7 04       	add    $0x4c70000,%eax
  4015e6:	24 90                	and    $0x90,%al
  4015e8:	1b 40 00             	sbb    0x0(%eax),%eax
  4015eb:	89 c1                	mov    %eax,%ecx
  4015ed:	e8 ce 05 00 00       	call   401bc0 <__ZNSolsEPFRSoS_E>
  4015f2:	83 ec 04             	sub    $0x4,%esp
  4015f5:	8d 45 e0             	lea    -0x20(%ebp),%eax
  4015f8:	89 c1                	mov    %eax,%ecx
  4015fa:	e8 a9 05 00 00       	call   401ba8 <__ZNSt7__cxx1112basic_stringIcSt11char_traitsIcESaIcEED1Ev>
  4015ff:	eb 16                	jmp    401617 <__fu0___ZSt4cout+0x3c>
  401601:	89 c3                	mov    %eax,%ebx
  401603:	8d 45 e0             	lea    -0x20(%ebp),%eax
  401606:	89 c1                	mov    %eax,%ecx
  401608:	e8 9b 05 00 00       	call   401ba8 <__ZNSt7__cxx1112basic_stringIcSt11char_traitsIcESaIcEED1Ev>
  40160d:	89 d8                	mov    %ebx,%eax
  40160f:	89 04 24             	mov    %eax,(%esp)
  401612:	e8 19 2f 00 00       	call   404530 <__Unwind_Resume>
  401617:	8b 5d fc             	mov    -0x4(%ebp),%ebx
  40161a:	c9                   	leave  
  40161b:	c3                   	ret    

0040161c <__Z5firstB5cxx11v>:
  40161c:	55                   	push   %ebp
  40161d:	89 e5                	mov    %esp,%ebp
  40161f:	57                   	push   %edi
  401620:	53                   	push   %ebx
  401621:	83 c4 80             	add    $0xffffff80,%esp
  401624:	c7 45 8f 58 3f 57 3f 	movl   $0x3f573f58,-0x71(%ebp)
  40162b:	c7 45 93 64 40 3c 4c 	movl   $0x4c3c4064,-0x6d(%ebp)
  401632:	c7 45 97 6a 00 00 00 	movl   $0x6a,-0x69(%ebp)
  401639:	8d 45 9b             	lea    -0x65(%ebp),%eax
  40163c:	b9 58 00 00 00       	mov    $0x58,%ecx
  401641:	bb 00 00 00 00       	mov    $0x0,%ebx
  401646:	89 18                	mov    %ebx,(%eax)
  401648:	89 5c 08 fc          	mov    %ebx,-0x4(%eax,%ecx,1)
  40164c:	8d 50 04             	lea    0x4(%eax),%edx
  40164f:	83 e2 fc             	and    $0xfffffffc,%edx
  401652:	29 d0                	sub    %edx,%eax
  401654:	01 c1                	add    %eax,%ecx
  401656:	83 e1 fc             	and    $0xfffffffc,%ecx
  401659:	c1 e9 02             	shr    $0x2,%ecx
  40165c:	89 d7                	mov    %edx,%edi
  40165e:	89 d8                	mov    %ebx,%eax
  401660:	f3 ab                	rep stos %eax,%es:(%edi)
  401662:	c7 45 f4 00 00 00 00 	movl   $0x0,-0xc(%ebp)
  401669:	83 7d f4 63          	cmpl   $0x63,-0xc(%ebp)
  40166d:	7f 2f                	jg     40169e <__Z5firstB5cxx11v+0x82>
  40166f:	8d 55 8f             	lea    -0x71(%ebp),%edx
  401672:	8b 45 f4             	mov    -0xc(%ebp),%eax
  401675:	01 d0                	add    %edx,%eax
  401677:	0f b6 00             	movzbl (%eax),%eax
  40167a:	84 c0                	test   %al,%al
  40167c:	74 20                	je     40169e <__Z5firstB5cxx11v+0x82>
  40167e:	8d 55 8f             	lea    -0x71(%ebp),%edx
  401681:	8b 45 f4             	mov    -0xc(%ebp),%eax
  401684:	01 d0                	add    %edx,%eax
  401686:	0f b6 00             	movzbl (%eax),%eax
  401689:	83 e8 0b             	sub    $0xb,%eax
  40168c:	89 c1                	mov    %eax,%ecx
  40168e:	8d 55 8f             	lea    -0x71(%ebp),%edx
  401691:	8b 45 f4             	mov    -0xc(%ebp),%eax
  401694:	01 d0                	add    %edx,%eax
  401696:	88 08                	mov    %cl,(%eax)
  401698:	83 45 f4 01          	addl   $0x1,-0xc(%ebp)
  40169c:	eb cb                	jmp    401669 <__Z5firstB5cxx11v+0x4d>
  40169e:	8d 45 f3             	lea    -0xd(%ebp),%eax
  4016a1:	89 c1                	mov    %eax,%ecx
  4016a3:	e8 30 05 00 00       	call   401bd8 <__ZNSaIcEC1Ev>
  4016a8:	8d 45 f3             	lea    -0xd(%ebp),%eax
  4016ab:	89 44 24 04          	mov    %eax,0x4(%esp)
  4016af:	8d 45 8f             	lea    -0x71(%ebp),%eax
  4016b2:	89 04 24             	mov    %eax,(%esp)
  4016b5:	8b 4d 08             	mov    0x8(%ebp),%ecx
  4016b8:	e8 fb 04 00 00       	call   401bb8 <__ZNSt7__cxx1112basic_stringIcSt11char_traitsIcESaIcEEC1EPKcRKS3_>
  4016bd:	83 ec 08             	sub    $0x8,%esp
  4016c0:	8d 45 f3             	lea    -0xd(%ebp),%eax
  4016c3:	89 c1                	mov    %eax,%ecx
  4016c5:	e8 06 05 00 00       	call   401bd0 <__ZNSaIcED1Ev>
  4016ca:	eb 16                	jmp    4016e2 <__Z5firstB5cxx11v+0xc6>
  4016cc:	89 c3                	mov    %eax,%ebx
  4016ce:	8d 45 f3             	lea    -0xd(%ebp),%eax
  4016d1:	89 c1                	mov    %eax,%ecx
  4016d3:	e8 f8 04 00 00       	call   401bd0 <__ZNSaIcED1Ev>
  4016d8:	89 d8                	mov    %ebx,%eax
  4016da:	89 04 24             	mov    %eax,(%esp)
  4016dd:	e8 4e 2e 00 00       	call   404530 <__Unwind_Resume>
  4016e2:	8b 45 08             	mov    0x8(%ebp),%eax
  4016e5:	8d 65 f8             	lea    -0x8(%ebp),%esp
  4016e8:	5b                   	pop    %ebx
  4016e9:	5f                   	pop    %edi
  4016ea:	5d                   	pop    %ebp
  4016eb:	c3                   	ret    

004016ec <__Z4lastB5cxx11v>:
  4016ec:	55                   	push   %ebp
  4016ed:	89 e5                	mov    %esp,%ebp
  4016ef:	57                   	push   %edi
  4016f0:	53                   	push   %ebx
  4016f1:	83 c4 80             	add    $0xffffff80,%esp
  4016f4:	c7 45 8f 5c 40 4f 56 	movl   $0x564f405c,-0x71(%ebp)
  4016fb:	c7 45 93 4d 51 2d 00 	movl   $0x2d514d,-0x6d(%ebp)
  401702:	8d 45 97             	lea    -0x69(%ebp),%eax
  401705:	b9 5c 00 00 00       	mov    $0x5c,%ecx
  40170a:	bb 00 00 00 00       	mov    $0x0,%ebx
  40170f:	89 18                	mov    %ebx,(%eax)
  401711:	89 5c 08 fc          	mov    %ebx,-0x4(%eax,%ecx,1)
  401715:	8d 50 04             	lea    0x4(%eax),%edx
  401718:	83 e2 fc             	and    $0xfffffffc,%edx
  40171b:	29 d0                	sub    %edx,%eax
  40171d:	01 c1                	add    %eax,%ecx
  40171f:	83 e1 fc             	and    $0xfffffffc,%ecx
  401722:	c1 e9 02             	shr    $0x2,%ecx
  401725:	89 d7                	mov    %edx,%edi
  401727:	89 d8                	mov    %ebx,%eax
  401729:	f3 ab                	rep stos %eax,%es:(%edi)
  40172b:	c7 45 f4 00 00 00 00 	movl   $0x0,-0xc(%ebp)
  401732:	83 7d f4 63          	cmpl   $0x63,-0xc(%ebp)
  401736:	7f 2f                	jg     401767 <__Z4lastB5cxx11v+0x7b>
  401738:	8d 55 8f             	lea    -0x71(%ebp),%edx
  40173b:	8b 45 f4             	mov    -0xc(%ebp),%eax
  40173e:	01 d0                	add    %edx,%eax
  401740:	0f b6 00             	movzbl (%eax),%eax
  401743:	84 c0                	test   %al,%al
  401745:	74 20                	je     401767 <__Z4lastB5cxx11v+0x7b>
  401747:	8d 55 8f             	lea    -0x71(%ebp),%edx
  40174a:	8b 45 f4             	mov    -0xc(%ebp),%eax
  40174d:	01 d0                	add    %edx,%eax
  40174f:	0f b6 00             	movzbl (%eax),%eax
  401752:	83 c0 03             	add    $0x3,%eax
  401755:	89 c1                	mov    %eax,%ecx
  401757:	8d 55 8f             	lea    -0x71(%ebp),%edx
  40175a:	8b 45 f4             	mov    -0xc(%ebp),%eax
  40175d:	01 d0                	add    %edx,%eax
  40175f:	88 08                	mov    %cl,(%eax)
  401761:	83 45 f4 01          	addl   $0x1,-0xc(%ebp)
  401765:	eb cb                	jmp    401732 <__Z4lastB5cxx11v+0x46>
  401767:	8d 45 f3             	lea    -0xd(%ebp),%eax
  40176a:	89 c1                	mov    %eax,%ecx
  40176c:	e8 67 04 00 00       	call   401bd8 <__ZNSaIcEC1Ev>
  401771:	8d 45 f3             	lea    -0xd(%ebp),%eax
  401774:	89 44 24 04          	mov    %eax,0x4(%esp)
  401778:	8d 45 8f             	lea    -0x71(%ebp),%eax
  40177b:	89 04 24             	mov    %eax,(%esp)
  40177e:	8b 4d 08             	mov    0x8(%ebp),%ecx
  401781:	e8 32 04 00 00       	call   401bb8 <__ZNSt7__cxx1112basic_stringIcSt11char_traitsIcESaIcEEC1EPKcRKS3_>
  401786:	83 ec 08             	sub    $0x8,%esp
  401789:	8d 45 f3             	lea    -0xd(%ebp),%eax
  40178c:	89 c1                	mov    %eax,%ecx
  40178e:	e8 3d 04 00 00       	call   401bd0 <__ZNSaIcED1Ev>
  401793:	eb 16                	jmp    4017ab <__Z4lastB5cxx11v+0xbf>
  401795:	89 c3                	mov    %eax,%ebx
  401797:	8d 45 f3             	lea    -0xd(%ebp),%eax
  40179a:	89 c1                	mov    %eax,%ecx
  40179c:	e8 2f 04 00 00       	call   401bd0 <__ZNSaIcED1Ev>
  4017a1:	89 d8                	mov    %ebx,%eax
  4017a3:	89 04 24             	mov    %eax,(%esp)
  4017a6:	e8 85 2d 00 00       	call   404530 <__Unwind_Resume>
  4017ab:	8b 45 08             	mov    0x8(%ebp),%eax
  4017ae:	8d 65 f8             	lea    -0x8(%ebp),%esp
  4017b1:	5b                   	pop    %ebx
  4017b2:	5f                   	pop    %edi
  4017b3:	5d                   	pop    %ebp
  4017b4:	c3                   	ret    

004017b5 <_main>:
  4017b5:	8d 4c 24 04          	lea    0x4(%esp),%ecx
  4017b9:	83 e4 f0             	and    $0xfffffff0,%esp
  4017bc:	ff 71 fc             	pushl  -0x4(%ecx)
  4017bf:	55                   	push   %ebp
  4017c0:	89 e5                	mov    %esp,%ebp
  4017c2:	57                   	push   %edi
  4017c3:	53                   	push   %ebx
  4017c4:	51                   	push   %ecx
  4017c5:	81 ec 4c 02 00 00    	sub    $0x24c,%esp
  4017cb:	e8 70 09 00 00       	call   402140 <___main>
  4017d0:	c7 45 84 46 3f 3c 37 	movl   $0x373c3f46,-0x7c(%ebp)
  4017d7:	c7 45 88 62 54 5e 4f 	movl   $0x4f5e5462,-0x78(%ebp)
  4017de:	c7 45 8c 41 45 47 66 	movl   $0x66474541,-0x74(%ebp)
  4017e5:	c7 45 90 50 58 58 33 	movl   $0x33585850,-0x70(%ebp)
  4017ec:	c7 45 94 53 68 40 62 	movl   $0x62406853,-0x6c(%ebp)
  4017f3:	c7 45 98 45 72 57 3f 	movl   $0x3f577245,-0x68(%ebp)
  4017fa:	c7 45 9c 57 36 51 4d 	movl   $0x4d513657,-0x64(%ebp)
  401801:	c7 45 a0 00 00 00 00 	movl   $0x0,-0x60(%ebp)
  401808:	8d 55 a4             	lea    -0x5c(%ebp),%edx
  40180b:	b8 00 00 00 00       	mov    $0x0,%eax
  401810:	b9 11 00 00 00       	mov    $0x11,%ecx
  401815:	89 d7                	mov    %edx,%edi
  401817:	f3 ab                	rep stos %eax,%es:(%edi)
  401819:	8d 85 00 fe ff ff    	lea    -0x200(%ebp),%eax
  40181f:	89 04 24             	mov    %eax,(%esp)
  401822:	e8 e9 fb ff ff       	call   401410 <__Z6SecretB5cxx11v>
  401827:	8d 85 e8 fd ff ff    	lea    -0x218(%ebp),%eax
  40182d:	89 04 24             	mov    %eax,(%esp)
  401830:	e8 e7 fd ff ff       	call   40161c <__Z5firstB5cxx11v>
  401835:	8d 85 d0 fd ff ff    	lea    -0x230(%ebp),%eax
  40183b:	89 04 24             	mov    %eax,(%esp)
  40183e:	e8 a9 fe ff ff       	call   4016ec <__Z4lastB5cxx11v>
  401843:	8d 85 b8 fd ff ff    	lea    -0x248(%ebp),%eax
  401849:	89 c1                	mov    %eax,%ecx
  40184b:	e8 60 03 00 00       	call   401bb0 <__ZNSt7__cxx1112basic_stringIcSt11char_traitsIcESaIcEEC1Ev>
  401850:	c7 44 24 04 48 60 40 	movl   $0x406048,0x4(%esp)
  401857:	00 
  401858:	c7                   	.byte 0xc7
  401859:	04 24                	add    $0x24,%al

0040185b <__fu1___ZSt4cout>:
  40185b:	d0 92 40 00 e8 24    	rclb   0x24e80040(%edx)
  401861:	03 00                	add    (%eax),%eax
  401863:	00 c7                	add    %al,%bh
  401865:	44                   	inc    %esp
  401866:	24 04                	and    $0x4,%al
  401868:	cd 60                	int    $0x60
  40186a:	40                   	inc    %eax
  40186b:	00 c7                	add    %al,%bh
  40186d:	04 24                	add    $0x24,%al

0040186f <__fu2___ZSt4cout>:
  40186f:	d0 92 40 00 e8 10    	rclb   0x10e80040(%edx)
  401875:	03 00                	add    (%eax),%eax
  401877:	00 8d 55 84 89 54    	add    %cl,0x54898455(%ebp)
  40187d:	24 04                	and    $0x4,%al
  40187f:	89 04 24             	mov    %eax,(%esp)
  401882:	e8 01 03 00 00       	call   401b88 <__ZStlsISt11char_traitsIcEERSt13basic_ostreamIcT_ES5_PKc>
  401887:	c7 44 24 04 ea 60 40 	movl   $0x4060ea,0x4(%esp)
  40188e:	00 
  40188f:	89 04 24             	mov    %eax,(%esp)
  401892:	e8 f1 02 00 00       	call   401b88 <__ZStlsISt11char_traitsIcEERSt13basic_ostreamIcT_ES5_PKc>
  401897:	c7 44 24 04 ec 60 40 	movl   $0x4060ec,0x4(%esp)
  40189e:	00 
  40189f:	c7                   	.byte 0xc7
  4018a0:	04 24                	add    $0x24,%al

004018a2 <__fu3___ZSt4cout>:
  4018a2:	d0 92 40 00 e8 dd    	rclb   -0x2217ffc0(%edx)
  4018a8:	02 00                	add    (%eax),%al
  4018aa:	00 8d 85 18 fe ff    	add    %cl,-0x1e77b(%ebp)
  4018b0:	ff                   	.byte 0xff
  4018b1:	89 04 24             	mov    %eax,(%esp)
  4018b4:	b9                   	.byte 0xb9

004018b5 <__fu4___ZSt3cin>:
  4018b5:	cc                   	int3   
  4018b6:	92                   	xchg   %eax,%edx
  4018b7:	40                   	inc    %eax
  4018b8:	00 e8                	add    %ch,%al
  4018ba:	0a 03                	or     (%ebx),%al
  4018bc:	00 00                	add    %al,(%eax)
  4018be:	83 ec 04             	sub    $0x4,%esp
  4018c1:	8b 85 18 fe ff ff    	mov    -0x1e8(%ebp),%eax
  4018c7:	83 f8 01             	cmp    $0x1,%eax
  4018ca:	74 0e                	je     4018da <__fu4___ZSt3cin+0x25>
  4018cc:	83 f8 02             	cmp    $0x2,%eax
  4018cf:	0f 84 24 01 00 00    	je     4019f9 <__fu10___ZSt4cout+0xe>
  4018d5:	e9 8f 01 00 00       	jmp    401a69 <__fu14___ZSt4cout+0xb>
  4018da:	c7 44 24 04 48 61 40 	movl   $0x406148,0x4(%esp)
  4018e1:	00 
  4018e2:	c7                   	.byte 0xc7
  4018e3:	04 24                	add    $0x24,%al

004018e5 <__fu5___ZSt4cout>:
  4018e5:	d0 92 40 00 e8 9a    	rclb   -0x6517ffc0(%edx)
  4018eb:	02 00                	add    (%eax),%al
  4018ed:	00 8d 85 b8 fd ff    	add    %cl,-0x2477b(%ebp)
  4018f3:	ff 89 44 24 04 c7    	decl   -0x38fbdbbc(%ecx)
  4018f9:	04 24                	add    $0x24,%al

004018fb <__fu6___ZSt3cin>:
  4018fb:	cc                   	int3   
  4018fc:	92                   	xchg   %eax,%edx
  4018fd:	40                   	inc    %eax
  4018fe:	00 e8                	add    %ch,%al
  401900:	6c                   	insb   (%dx),%es:(%edi)
  401901:	02 00                	add    (%eax),%al
  401903:	00 8d 85 00 fe ff    	add    %cl,-0x1ff7b(%ebp)
  401909:	ff 89 c1 e8 cf 02    	decl   0x2cfe8c1(%ecx)
  40190f:	00 00                	add    %al,(%eax)
  401911:	89 c3                	mov    %eax,%ebx
  401913:	8d 85 b8 fd ff ff    	lea    -0x248(%ebp),%eax
  401919:	89 c1                	mov    %eax,%ecx
  40191b:	e8 c0 02 00 00       	call   401be0 <__ZNKSt7__cxx1112basic_stringIcSt11char_traitsIcESaIcEE5c_strEv>
  401920:	89 5c 24 04          	mov    %ebx,0x4(%esp)
  401924:	89 04 24             	mov    %eax,(%esp)
  401927:	e8 70 2c 00 00       	call   40459c <_strcmp>
  40192c:	85 c0                	test   %eax,%eax
  40192e:	0f 94 c0             	sete   %al
  401931:	84 c0                	test   %al,%al
  401933:	0f 84 93 00 00 00    	je     4019cc <__fu8___ZSt4cout+0x74>
  401939:	c7 44 24 04 69 61 40 	movl   $0x406169,0x4(%esp)
  401940:	00 
  401941:	c7                   	.byte 0xc7
  401942:	04 24                	add    $0x24,%al

00401944 <__fu7___ZSt4cout>:
  401944:	d0 92 40 00 e8 3b    	rclb   0x3be80040(%edx)
  40194a:	02 00                	add    (%eax),%al
  40194c:	00 c7                	add    %al,%bh
  40194e:	44                   	inc    %esp
  40194f:	24 04                	and    $0x4,%al
  401951:	85 61 40             	test   %esp,0x40(%ecx)
  401954:	00 c7                	add    %al,%bh
  401956:	04 24                	add    $0x24,%al

00401958 <__fu8___ZSt4cout>:
  401958:	d0 92 40 00 e8 27    	rclb   0x27e80040(%edx)
  40195e:	02 00                	add    (%eax),%al
  401960:	00 8d 95 e8 fd ff    	add    %cl,-0x2176b(%ebp)
  401966:	ff 89 54 24 04 89    	decl   -0x76fbdbac(%ecx)
  40196c:	04 24                	add    $0x24,%al
  40196e:	e8 0d 02 00 00       	call   401b80 <__ZStlsIcSt11char_traitsIcESaIcEERSt13basic_ostreamIT_T0_ES7_RKNSt7__cxx1112basic_stringIS4_S5_T1_EE>
  401973:	c7 44 24 04 9d 61 40 	movl   $0x40619d,0x4(%esp)
  40197a:	00 
  40197b:	89 04 24             	mov    %eax,(%esp)
  40197e:	e8 05 02 00 00       	call   401b88 <__ZStlsISt11char_traitsIcEERSt13basic_ostreamIcT_ES5_PKc>
  401983:	8d 95 00 fe ff ff    	lea    -0x200(%ebp),%edx
  401989:	89 54 24 04          	mov    %edx,0x4(%esp)
  40198d:	89 04 24             	mov    %eax,(%esp)
  401990:	e8 eb 01 00 00       	call   401b80 <__ZStlsIcSt11char_traitsIcESaIcEERSt13basic_ostreamIT_T0_ES7_RKNSt7__cxx1112basic_stringIS4_S5_T1_EE>
  401995:	c7 44 24 04 9f 61 40 	movl   $0x40619f,0x4(%esp)
  40199c:	00 
  40199d:	89 04 24             	mov    %eax,(%esp)
  4019a0:	e8 e3 01 00 00       	call   401b88 <__ZStlsISt11char_traitsIcEERSt13basic_ostreamIcT_ES5_PKc>
  4019a5:	8d 95 d0 fd ff ff    	lea    -0x230(%ebp),%edx
  4019ab:	89 54 24 04          	mov    %edx,0x4(%esp)
  4019af:	89 04 24             	mov    %eax,(%esp)
  4019b2:	e8 c9 01 00 00       	call   401b80 <__ZStlsIcSt11char_traitsIcESaIcEERSt13basic_ostreamIT_T0_ES7_RKNSt7__cxx1112basic_stringIS4_S5_T1_EE>
  4019b7:	c7 44 24 04 a1 61 40 	movl   $0x4061a1,0x4(%esp)
  4019be:	00 
  4019bf:	89 04 24             	mov    %eax,(%esp)
  4019c2:	e8 c1 01 00 00       	call   401b88 <__ZStlsISt11char_traitsIcEERSt13basic_ostreamIcT_ES5_PKc>
  4019c7:	e9 b2 00 00 00       	jmp    401a7e <__fu15___ZSt4cout+0xa>
  4019cc:	c7 44 24 04 a4 61 40 	movl   $0x4061a4,0x4(%esp)
  4019d3:	00 
  4019d4:	c7                   	.byte 0xc7
  4019d5:	04 24                	add    $0x24,%al

004019d7 <__fu9___ZSt4cout>:
  4019d7:	d0 92 40 00 e8 a8    	rclb   -0x5717ffc0(%edx)
  4019dd:	01 00                	add    %eax,(%eax)
  4019df:	00 c7                	add    %al,%bh
  4019e1:	44                   	inc    %esp
  4019e2:	24 04                	and    $0x4,%al
  4019e4:	c1 61 40 00          	shll   $0x0,0x40(%ecx)
  4019e8:	c7                   	.byte 0xc7
  4019e9:	04 24                	add    $0x24,%al

004019eb <__fu10___ZSt4cout>:
  4019eb:	d0 92 40 00 e8 94    	rclb   -0x6b17ffc0(%edx)
  4019f1:	01 00                	add    %eax,(%eax)
  4019f3:	00 e9                	add    %ch,%cl
  4019f5:	85 00                	test   %eax,(%eax)
  4019f7:	00 00                	add    %al,(%eax)
  4019f9:	c7 44 24 04 cc 61 40 	movl   $0x4061cc,0x4(%esp)
  401a00:	00 
  401a01:	c7                   	.byte 0xc7
  401a02:	04 24                	add    $0x24,%al

00401a04 <__fu11___ZSt4cout>:
  401a04:	d0 92 40 00 e8 7b    	rclb   0x7be80040(%edx)
  401a0a:	01 00                	add    %eax,(%eax)
  401a0c:	00 8d 85 1c fe ff    	add    %cl,-0x1e37b(%ebp)
  401a12:	ff 89 44 24 04 c7    	decl   -0x38fbdbbc(%ecx)
  401a18:	04 24                	add    $0x24,%al

00401a1a <__fu12___ZSt3cin>:
  401a1a:	cc                   	int3   
  401a1b:	92                   	xchg   %eax,%edx
  401a1c:	40                   	inc    %eax
  401a1d:	00 e8                	add    %ch,%al
  401a1f:	55                   	push   %ebp
  401a20:	01 00                	add    %eax,(%eax)
  401a22:	00 c7                	add    %al,%bh
  401a24:	44                   	inc    %esp
  401a25:	24 04                	and    $0x4,%al
  401a27:	f8                   	clc    
  401a28:	61                   	popa   
  401a29:	40                   	inc    %eax
  401a2a:	00 8d 85 1c fe ff    	add    %cl,-0x1e37b(%ebp)
  401a30:	ff 89 04 24 e8 63    	decl   0x63e82404(%ecx)
  401a36:	2b 00                	sub    (%eax),%eax
  401a38:	00 85 c0 75 16 c7    	add    %al,-0x38e98a40(%ebp)
  401a3e:	44                   	inc    %esp
  401a3f:	24 04                	and    $0x4,%al
  401a41:	02 62 40             	add    0x40(%edx),%ah
  401a44:	00 c7                	add    %al,%bh
  401a46:	04 24                	add    $0x24,%al

00401a48 <__fu13___ZSt4cout>:
  401a48:	d0 92 40 00 e8 37    	rclb   0x37e80040(%edx)
  401a4e:	01 00                	add    %eax,(%eax)
  401a50:	00 eb                	add    %ch,%bl
  401a52:	2b c7                	sub    %edi,%eax
  401a54:	44                   	inc    %esp
  401a55:	24 04                	and    $0x4,%al
  401a57:	1e                   	push   %ds
  401a58:	62 40 00             	bound  %eax,0x0(%eax)
  401a5b:	c7                   	.byte 0xc7
  401a5c:	04 24                	add    $0x24,%al

00401a5e <__fu14___ZSt4cout>:
  401a5e:	d0 92 40 00 e8 21    	rclb   0x21e80040(%edx)
  401a64:	01 00                	add    %eax,(%eax)
  401a66:	00 eb                	add    %ch,%bl
  401a68:	15 c7 44 24 04       	adc    $0x42444c7,%eax
  401a6d:	2e 62 40 00          	bound  %eax,%cs:0x0(%eax)
  401a71:	c7                   	.byte 0xc7
  401a72:	04 24                	add    $0x24,%al

00401a74 <__fu15___ZSt4cout>:
  401a74:	d0 92 40 00 e8 0b    	rclb   0xbe80040(%edx)
  401a7a:	01 00                	add    %eax,(%eax)
  401a7c:	00 90 8d 85 b8 fd    	add    %dl,-0x2477a73(%eax)
  401a82:	ff                   	(bad)  
  401a83:	ff 89 c1 e8 1d 01    	decl   0x11de8c1(%ecx)
  401a89:	00 00                	add    %al,(%eax)
  401a8b:	8d 85 d0 fd ff ff    	lea    -0x230(%ebp),%eax
  401a91:	89 c1                	mov    %eax,%ecx
  401a93:	e8 10 01 00 00       	call   401ba8 <__ZNSt7__cxx1112basic_stringIcSt11char_traitsIcESaIcEED1Ev>
  401a98:	8d 85 e8 fd ff ff    	lea    -0x218(%ebp),%eax
  401a9e:	89 c1                	mov    %eax,%ecx
  401aa0:	e8 03 01 00 00       	call   401ba8 <__ZNSt7__cxx1112basic_stringIcSt11char_traitsIcESaIcEED1Ev>
  401aa5:	8d 85 00 fe ff ff    	lea    -0x200(%ebp),%eax
  401aab:	89 c1                	mov    %eax,%ecx
  401aad:	e8 f6 00 00 00       	call   401ba8 <__ZNSt7__cxx1112basic_stringIcSt11char_traitsIcESaIcEED1Ev>
  401ab2:	b8 00 00 00 00       	mov    $0x0,%eax
  401ab7:	eb 48                	jmp    401b01 <__fu15___ZSt4cout+0x8d>
  401ab9:	89 c3                	mov    %eax,%ebx
  401abb:	8d 85 b8 fd ff ff    	lea    -0x248(%ebp),%eax
  401ac1:	89 c1                	mov    %eax,%ecx
  401ac3:	e8 e0 00 00 00       	call   401ba8 <__ZNSt7__cxx1112basic_stringIcSt11char_traitsIcESaIcEED1Ev>
  401ac8:	8d 85 d0 fd ff ff    	lea    -0x230(%ebp),%eax
  401ace:	89 c1                	mov    %eax,%ecx
  401ad0:	e8 d3 00 00 00       	call   401ba8 <__ZNSt7__cxx1112basic_stringIcSt11char_traitsIcESaIcEED1Ev>
  401ad5:	eb 02                	jmp    401ad9 <__fu15___ZSt4cout+0x65>
  401ad7:	89 c3                	mov    %eax,%ebx
  401ad9:	8d 85 e8 fd ff ff    	lea    -0x218(%ebp),%eax
  401adf:	89 c1                	mov    %eax,%ecx
  401ae1:	e8 c2 00 00 00       	call   401ba8 <__ZNSt7__cxx1112basic_stringIcSt11char_traitsIcESaIcEED1Ev>
  401ae6:	eb 02                	jmp    401aea <__fu15___ZSt4cout+0x76>
  401ae8:	89 c3                	mov    %eax,%ebx
  401aea:	8d 85 00 fe ff ff    	lea    -0x200(%ebp),%eax
  401af0:	89 c1                	mov    %eax,%ecx
  401af2:	e8 b1 00 00 00       	call   401ba8 <__ZNSt7__cxx1112basic_stringIcSt11char_traitsIcESaIcEED1Ev>
  401af7:	89 d8                	mov    %ebx,%eax
  401af9:	89 04 24             	mov    %eax,(%esp)
  401afc:	e8 2f 2a 00 00       	call   404530 <__Unwind_Resume>
  401b01:	8d 65 f4             	lea    -0xc(%ebp),%esp
  401b04:	59                   	pop    %ecx
  401b05:	5b                   	pop    %ebx
  401b06:	5f                   	pop    %edi
  401b07:	5d                   	pop    %ebp
  401b08:	8d 61 fc             	lea    -0x4(%ecx),%esp
  401b0b:	c3                   	ret    

00401b0c <___tcf_0>:
  401b0c:	55                   	push   %ebp
  401b0d:	89 e5                	mov    %esp,%ebp
  401b0f:	83 ec 08             	sub    $0x8,%esp
  401b12:	b9 20 80 40 00       	mov    $0x408020,%ecx
  401b17:	e8 7c 00 00 00       	call   401b98 <__ZNSt8ios_base4InitD1Ev>
  401b1c:	c9                   	leave  
  401b1d:	c3                   	ret    

00401b1e <__Z41__static_initialization_and_destruction_0ii>:
  401b1e:	55                   	push   %ebp
  401b1f:	89 e5                	mov    %esp,%ebp
  401b21:	83 ec 18             	sub    $0x18,%esp
  401b24:	83 7d 08 01          	cmpl   $0x1,0x8(%ebp)
  401b28:	75 1f                	jne    401b49 <__Z41__static_initialization_and_destruction_0ii+0x2b>
  401b2a:	81 7d 0c ff ff 00 00 	cmpl   $0xffff,0xc(%ebp)
  401b31:	75 16                	jne    401b49 <__Z41__static_initialization_and_destruction_0ii+0x2b>
  401b33:	b9 20 80 40 00       	mov    $0x408020,%ecx
  401b38:	e8 63 00 00 00       	call   401ba0 <__ZNSt8ios_base4InitC1Ev>
  401b3d:	c7 04 24 0c 1b 40 00 	movl   $0x401b0c,(%esp)
  401b44:	e8 c7 f7 ff ff       	call   401310 <_atexit>
  401b49:	90                   	nop
  401b4a:	c9                   	leave  
  401b4b:	c3                   	ret    

00401b4c <__GLOBAL__sub_I__Z6SecretB5cxx11v>:
  401b4c:	55                   	push   %ebp
  401b4d:	89 e5                	mov    %esp,%ebp
  401b4f:	83 ec 18             	sub    $0x18,%esp
  401b52:	c7 44 24 04 ff ff 00 	movl   $0xffff,0x4(%esp)
  401b59:	00 
  401b5a:	c7 04 24 01 00 00 00 	movl   $0x1,(%esp)
  401b61:	e8 b8 ff ff ff       	call   401b1e <__Z41__static_initialization_and_destruction_0ii>
  401b66:	c9                   	leave  
  401b67:	c3                   	ret    

00401b68 <___gxx_personality_v0>:
  401b68:	ff 25 e8 92 40 00    	jmp    *0x4092e8
  401b6e:	90                   	nop
  401b6f:	90                   	nop

00401b70 <__ZStrsIcSt11char_traitsIcESaIcEERSt13basic_istreamIT_T0_ES7_RNSt7__cxx1112basic_stringIS4_S5_T1_EE>:
  401b70:	ff 25 e4 92 40 00    	jmp    *0x4092e4
  401b76:	90                   	nop
  401b77:	90                   	nop

00401b78 <__ZStrsIcSt11char_traitsIcEERSt13basic_istreamIT_T0_ES6_PS3_>:
  401b78:	ff 25 e0 92 40 00    	jmp    *0x4092e0
  401b7e:	90                   	nop
  401b7f:	90                   	nop

00401b80 <__ZStlsIcSt11char_traitsIcESaIcEERSt13basic_ostreamIT_T0_ES7_RKNSt7__cxx1112basic_stringIS4_S5_T1_EE>:
  401b80:	ff 25 dc 92 40 00    	jmp    *0x4092dc
  401b86:	90                   	nop
  401b87:	90                   	nop

00401b88 <__ZStlsISt11char_traitsIcEERSt13basic_ostreamIcT_ES5_PKc>:
  401b88:	ff 25 d8 92 40 00    	jmp    *0x4092d8
  401b8e:	90                   	nop
  401b8f:	90                   	nop

00401b90 <__ZSt4endlIcSt11char_traitsIcEERSt13basic_ostreamIT_T0_ES6_>:
  401b90:	ff 25 d4 92 40 00    	jmp    *0x4092d4
  401b96:	90                   	nop
  401b97:	90                   	nop

00401b98 <__ZNSt8ios_base4InitD1Ev>:
  401b98:	ff 25 c8 92 40 00    	jmp    *0x4092c8
  401b9e:	90                   	nop
  401b9f:	90                   	nop

00401ba0 <__ZNSt8ios_base4InitC1Ev>:
  401ba0:	ff 25 c4 92 40 00    	jmp    *0x4092c4
  401ba6:	90                   	nop
  401ba7:	90                   	nop

00401ba8 <__ZNSt7__cxx1112basic_stringIcSt11char_traitsIcESaIcEED1Ev>:
  401ba8:	ff 25 c0 92 40 00    	jmp    *0x4092c0
  401bae:	90                   	nop
  401baf:	90                   	nop

00401bb0 <__ZNSt7__cxx1112basic_stringIcSt11char_traitsIcESaIcEEC1Ev>:
  401bb0:	ff 25 bc 92 40 00    	jmp    *0x4092bc
  401bb6:	90                   	nop
  401bb7:	90                   	nop

00401bb8 <__ZNSt7__cxx1112basic_stringIcSt11char_traitsIcESaIcEEC1EPKcRKS3_>:
  401bb8:	ff 25 b8 92 40 00    	jmp    *0x4092b8
  401bbe:	90                   	nop
  401bbf:	90                   	nop

00401bc0 <__ZNSolsEPFRSoS_E>:
  401bc0:	ff 25 b4 92 40 00    	jmp    *0x4092b4
  401bc6:	90                   	nop
  401bc7:	90                   	nop

00401bc8 <__ZNSirsERi>:
  401bc8:	ff 25 b0 92 40 00    	jmp    *0x4092b0
  401bce:	90                   	nop
  401bcf:	90                   	nop

00401bd0 <__ZNSaIcED1Ev>:
  401bd0:	ff 25 ac 92 40 00    	jmp    *0x4092ac
  401bd6:	90                   	nop
  401bd7:	90                   	nop

00401bd8 <__ZNSaIcEC1Ev>:
  401bd8:	ff 25 a8 92 40 00    	jmp    *0x4092a8
  401bde:	90                   	nop
  401bdf:	90                   	nop

00401be0 <__ZNKSt7__cxx1112basic_stringIcSt11char_traitsIcESaIcEE5c_strEv>:
  401be0:	ff 25 a4 92 40 00    	jmp    *0x4092a4
  401be6:	90                   	nop
  401be7:	90                   	nop
  401be8:	66 90                	xchg   %ax,%ax
  401bea:	66 90                	xchg   %ax,%ax
  401bec:	66 90                	xchg   %ax,%ax
  401bee:	66 90                	xchg   %ax,%ax

00401bf0 <__setargv>:
  401bf0:	55                   	push   %ebp
  401bf1:	89 e5                	mov    %esp,%ebp
  401bf3:	57                   	push   %edi
  401bf4:	56                   	push   %esi
  401bf5:	53                   	push   %ebx
  401bf6:	83 ec 4c             	sub    $0x4c,%esp
  401bf9:	f6 05 04 50 40 00 02 	testb  $0x2,0x405004
  401c00:	75 0e                	jne    401c10 <__setargv+0x20>
  401c02:	e8 89 f6 ff ff       	call   401290 <__mingw32_init_mainargs>
  401c07:	8d 65 f4             	lea    -0xc(%ebp),%esp
  401c0a:	5b                   	pop    %ebx
  401c0b:	5e                   	pop    %esi
  401c0c:	5f                   	pop    %edi
  401c0d:	5d                   	pop    %ebp
  401c0e:	c3                   	ret    
  401c0f:	90                   	nop
  401c10:	e8 6f 2a 00 00       	call   404684 <_GetCommandLineA@0>
  401c15:	89 65 c0             	mov    %esp,-0x40(%ebp)
  401c18:	89 04 24             	mov    %eax,(%esp)
  401c1b:	89 c3                	mov    %eax,%ebx
  401c1d:	e8 6a 29 00 00       	call   40458c <_strlen>
  401c22:	8d 44 00 11          	lea    0x11(%eax,%eax,1),%eax
  401c26:	c1 e8 04             	shr    $0x4,%eax
  401c29:	c1 e0 04             	shl    $0x4,%eax
  401c2c:	e8 07 29 00 00       	call   404538 <___chkstk_ms>
  401c31:	29 c4                	sub    %eax,%esp
  401c33:	a1 04 50 40 00       	mov    0x405004,%eax
  401c38:	c7 45 e4 00 00 00 00 	movl   $0x0,-0x1c(%ebp)
  401c3f:	0f be 3b             	movsbl (%ebx),%edi
  401c42:	8d 74 24 10          	lea    0x10(%esp),%esi
  401c46:	25 00 44 00 00       	and    $0x4400,%eax
  401c4b:	89 75 c8             	mov    %esi,-0x38(%ebp)
  401c4e:	83 c8 10             	or     $0x10,%eax
  401c51:	89 45 c4             	mov    %eax,-0x3c(%ebp)
  401c54:	8d 43 01             	lea    0x1(%ebx),%eax
  401c57:	89 fb                	mov    %edi,%ebx
  401c59:	89 45 d4             	mov    %eax,-0x2c(%ebp)
  401c5c:	85 ff                	test   %edi,%edi
  401c5e:	0f 84 cc 00 00 00    	je     401d30 <__setargv+0x140>
  401c64:	c7 45 cc 00 00 00 00 	movl   $0x0,-0x34(%ebp)
  401c6b:	89 f0                	mov    %esi,%eax
  401c6d:	31 d2                	xor    %edx,%edx
  401c6f:	c7 45 d0 00 00 00 00 	movl   $0x0,-0x30(%ebp)
  401c76:	8d b4 26 00 00 00 00 	lea    0x0(%esi,%eiz,1),%esi
  401c7d:	8d 76 00             	lea    0x0(%esi),%esi
  401c80:	80 fb 3f             	cmp    $0x3f,%bl
  401c83:	0f 8f 57 02 00 00    	jg     401ee0 <__setargv+0x2f0>
  401c89:	80 fb 21             	cmp    $0x21,%bl
  401c8c:	0f 8f 5e 01 00 00    	jg     401df0 <__setargv+0x200>
  401c92:	8d 34 10             	lea    (%eax,%edx,1),%esi
  401c95:	85 d2                	test   %edx,%edx
  401c97:	0f 84 d2 02 00 00    	je     401f6f <__setargv+0x37f>
  401c9d:	8d 76 00             	lea    0x0(%esi),%esi
  401ca0:	83 c0 01             	add    $0x1,%eax
  401ca3:	c6 40 ff 5c          	movb   $0x5c,-0x1(%eax)
  401ca7:	39 f0                	cmp    %esi,%eax
  401ca9:	75 f5                	jne    401ca0 <__setargv+0xb0>
  401cab:	8b 4d d0             	mov    -0x30(%ebp),%ecx
  401cae:	85 c9                	test   %ecx,%ecx
  401cb0:	0f 85 c2 00 00 00    	jne    401d78 <__setargv+0x188>
  401cb6:	a1 10 92 40 00       	mov    0x409210,%eax
  401cbb:	83 38 01             	cmpl   $0x1,(%eax)
  401cbe:	0f 85 8c 00 00 00    	jne    401d50 <__setargv+0x160>
  401cc4:	a1 40 92 40 00       	mov    0x409240,%eax
  401cc9:	8b 00                	mov    (%eax),%eax
  401ccb:	f6 04 78 40          	testb  $0x40,(%eax,%edi,2)
  401ccf:	0f 84 93 00 00 00    	je     401d68 <__setargv+0x178>
  401cd5:	39 75 c8             	cmp    %esi,-0x38(%ebp)
  401cd8:	0f 82 d2 00 00 00    	jb     401db0 <__setargv+0x1c0>
  401cde:	8b 55 cc             	mov    -0x34(%ebp),%edx
  401ce1:	85 d2                	test   %edx,%edx
  401ce3:	0f 85 c7 00 00 00    	jne    401db0 <__setargv+0x1c0>
  401ce9:	c7 45 cc 00 00 00 00 	movl   $0x0,-0x34(%ebp)
  401cf0:	89 f0                	mov    %esi,%eax
  401cf2:	31 d2                	xor    %edx,%edx
  401cf4:	e9 86 00 00 00       	jmp    401d7f <__setargv+0x18f>
  401cf9:	89 c2                	mov    %eax,%edx
  401cfb:	8d 74 26 00          	lea    0x0(%esi,%eiz,1),%esi
  401cff:	90                   	nop
  401d00:	39 55 c8             	cmp    %edx,-0x38(%ebp)
  401d03:	72 07                	jb     401d0c <__setargv+0x11c>
  401d05:	8b 45 cc             	mov    -0x34(%ebp),%eax
  401d08:	85 c0                	test   %eax,%eax
  401d0a:	74 24                	je     401d30 <__setargv+0x140>
  401d0c:	8d 45 d8             	lea    -0x28(%ebp),%eax
  401d0f:	c6 02 00             	movb   $0x0,(%edx)
  401d12:	89 44 24 0c          	mov    %eax,0xc(%esp)
  401d16:	c7 44 24 08 00 00 00 	movl   $0x0,0x8(%esp)
  401d1d:	00 
  401d1e:	8b 45 c4             	mov    -0x3c(%ebp),%eax
  401d21:	89 44 24 04          	mov    %eax,0x4(%esp)
  401d25:	8b 45 c8             	mov    -0x38(%ebp),%eax
  401d28:	89 04 24             	mov    %eax,(%esp)
  401d2b:	e8 f0 1a 00 00       	call   403820 <___mingw_glob>
  401d30:	8b 45 dc             	mov    -0x24(%ebp),%eax
  401d33:	a3 04 80 40 00       	mov    %eax,0x408004
  401d38:	8b 45 e0             	mov    -0x20(%ebp),%eax
  401d3b:	a3 00 80 40 00       	mov    %eax,0x408000
  401d40:	8b 65 c0             	mov    -0x40(%ebp),%esp
  401d43:	8d 65 f4             	lea    -0xc(%ebp),%esp
  401d46:	5b                   	pop    %ebx
  401d47:	5e                   	pop    %esi
  401d48:	5f                   	pop    %edi
  401d49:	5d                   	pop    %ebp
  401d4a:	c3                   	ret    
  401d4b:	8d 74 26 00          	lea    0x0(%esi,%eiz,1),%esi
  401d4f:	90                   	nop
  401d50:	c7 44 24 04 40 00 00 	movl   $0x40,0x4(%esp)
  401d57:	00 
  401d58:	89 3c 24             	mov    %edi,(%esp)
  401d5b:	e8 9c 28 00 00       	call   4045fc <__isctype>
  401d60:	85 c0                	test   %eax,%eax
  401d62:	0f 85 6d ff ff ff    	jne    401cd5 <__setargv+0xe5>
  401d68:	83 ff 09             	cmp    $0x9,%edi
  401d6b:	0f 84 64 ff ff ff    	je     401cd5 <__setargv+0xe5>
  401d71:	8d b4 26 00 00 00 00 	lea    0x0(%esi,%eiz,1),%esi
  401d78:	88 1e                	mov    %bl,(%esi)
  401d7a:	8d 46 01             	lea    0x1(%esi),%eax
  401d7d:	31 d2                	xor    %edx,%edx
  401d7f:	83 45 d4 01          	addl   $0x1,-0x2c(%ebp)
  401d83:	8b 7d d4             	mov    -0x2c(%ebp),%edi
  401d86:	0f be 7f ff          	movsbl -0x1(%edi),%edi
  401d8a:	89 fb                	mov    %edi,%ebx
  401d8c:	85 ff                	test   %edi,%edi
  401d8e:	0f 85 ec fe ff ff    	jne    401c80 <__setargv+0x90>
  401d94:	85 d2                	test   %edx,%edx
  401d96:	0f 84 5d ff ff ff    	je     401cf9 <__setargv+0x109>
  401d9c:	01 c2                	add    %eax,%edx
  401d9e:	66 90                	xchg   %ax,%ax
  401da0:	83 c0 01             	add    $0x1,%eax
  401da3:	c6 40 ff 5c          	movb   $0x5c,-0x1(%eax)
  401da7:	39 d0                	cmp    %edx,%eax
  401da9:	75 f5                	jne    401da0 <__setargv+0x1b0>
  401dab:	e9 50 ff ff ff       	jmp    401d00 <__setargv+0x110>
  401db0:	8d 45 d8             	lea    -0x28(%ebp),%eax
  401db3:	c6 06 00             	movb   $0x0,(%esi)
  401db6:	89 44 24 0c          	mov    %eax,0xc(%esp)
  401dba:	c7 44 24 08 00 00 00 	movl   $0x0,0x8(%esp)
  401dc1:	00 
  401dc2:	8b 75 c4             	mov    -0x3c(%ebp),%esi
  401dc5:	89 74 24 04          	mov    %esi,0x4(%esp)
  401dc9:	8b 7d c8             	mov    -0x38(%ebp),%edi
  401dcc:	83 ce 01             	or     $0x1,%esi
  401dcf:	89 3c 24             	mov    %edi,(%esp)
  401dd2:	e8 49 1a 00 00       	call   403820 <___mingw_glob>
  401dd7:	89 75 c4             	mov    %esi,-0x3c(%ebp)
  401dda:	89 f8                	mov    %edi,%eax
  401ddc:	31 d2                	xor    %edx,%edx
  401dde:	c7 45 cc 00 00 00 00 	movl   $0x0,-0x34(%ebp)
  401de5:	eb 98                	jmp    401d7f <__setargv+0x18f>
  401de7:	8d b4 26 00 00 00 00 	lea    0x0(%esi,%eiz,1),%esi
  401dee:	66 90                	xchg   %ax,%ax
  401df0:	8d 4b de             	lea    -0x22(%ebx),%ecx
  401df3:	80 f9 1d             	cmp    $0x1d,%cl
  401df6:	0f 87 96 fe ff ff    	ja     401c92 <__setargv+0xa2>
  401dfc:	0f b6 c9             	movzbl %cl,%ecx
  401dff:	ff 24 8d 3c 62 40 00 	jmp    *0x40623c(,%ecx,4)
  401e06:	8d 72 ff             	lea    -0x1(%edx),%esi
  401e09:	83 ff 7f             	cmp    $0x7f,%edi
  401e0c:	0f 94 c1             	sete   %cl
  401e0f:	89 cf                	mov    %ecx,%edi
  401e11:	8b 4d d0             	mov    -0x30(%ebp),%ecx
  401e14:	85 c9                	test   %ecx,%ecx
  401e16:	0f 95 c1             	setne  %cl
  401e19:	09 f9                	or     %edi,%ecx
  401e1b:	85 d2                	test   %edx,%edx
  401e1d:	0f 84 53 01 00 00    	je     401f76 <__setargv+0x386>
  401e23:	8d 54 30 01          	lea    0x1(%eax,%esi,1),%edx
  401e27:	8d b4 26 00 00 00 00 	lea    0x0(%esi,%eiz,1),%esi
  401e2e:	66 90                	xchg   %ax,%ax
  401e30:	83 c0 01             	add    $0x1,%eax
  401e33:	c6 40 ff 5c          	movb   $0x5c,-0x1(%eax)
  401e37:	39 d0                	cmp    %edx,%eax
  401e39:	75 f5                	jne    401e30 <__setargv+0x240>
  401e3b:	89 d6                	mov    %edx,%esi
  401e3d:	84 c9                	test   %cl,%cl
  401e3f:	0f 84 33 ff ff ff    	je     401d78 <__setargv+0x188>
  401e45:	c6 02 7f             	movb   $0x7f,(%edx)
  401e48:	8d 72 01             	lea    0x1(%edx),%esi
  401e4b:	e9 28 ff ff ff       	jmp    401d78 <__setargv+0x188>
  401e50:	f6 05 04 50 40 00 10 	testb  $0x10,0x405004
  401e57:	0f 84 35 fe ff ff    	je     401c92 <__setargv+0xa2>
  401e5d:	89 d1                	mov    %edx,%ecx
  401e5f:	d1 f9                	sar    %ecx
  401e61:	0f 84 1d 01 00 00    	je     401f84 <__setargv+0x394>
  401e67:	01 c1                	add    %eax,%ecx
  401e69:	8d b4 26 00 00 00 00 	lea    0x0(%esi,%eiz,1),%esi
  401e70:	83 c0 01             	add    $0x1,%eax
  401e73:	c6 40 ff 5c          	movb   $0x5c,-0x1(%eax)
  401e77:	39 c8                	cmp    %ecx,%eax
  401e79:	75 f5                	jne    401e70 <__setargv+0x280>
  401e7b:	83 7d d0 22          	cmpl   $0x22,-0x30(%ebp)
  401e7f:	74 09                	je     401e8a <__setargv+0x29a>
  401e81:	83 e2 01             	and    $0x1,%edx
  401e84:	0f 84 d1 00 00 00    	je     401f5b <__setargv+0x36b>
  401e8a:	c6 01 27             	movb   $0x27,(%ecx)
  401e8d:	8d 41 01             	lea    0x1(%ecx),%eax
  401e90:	31 d2                	xor    %edx,%edx
  401e92:	c7 45 cc 01 00 00 00 	movl   $0x1,-0x34(%ebp)
  401e99:	e9 e1 fe ff ff       	jmp    401d7f <__setargv+0x18f>
  401e9e:	89 d1                	mov    %edx,%ecx
  401ea0:	d1 f9                	sar    %ecx
  401ea2:	0f 84 d5 00 00 00    	je     401f7d <__setargv+0x38d>
  401ea8:	01 c1                	add    %eax,%ecx
  401eaa:	8d b6 00 00 00 00    	lea    0x0(%esi),%esi
  401eb0:	83 c0 01             	add    $0x1,%eax
  401eb3:	c6 40 ff 5c          	movb   $0x5c,-0x1(%eax)
  401eb7:	39 c8                	cmp    %ecx,%eax
  401eb9:	75 f5                	jne    401eb0 <__setargv+0x2c0>
  401ebb:	83 7d d0 27          	cmpl   $0x27,-0x30(%ebp)
  401ebf:	74 77                	je     401f38 <__setargv+0x348>
  401ec1:	83 e2 01             	and    $0x1,%edx
  401ec4:	75 72                	jne    401f38 <__setargv+0x348>
  401ec6:	83 75 d0 22          	xorl   $0x22,-0x30(%ebp)
  401eca:	89 c8                	mov    %ecx,%eax
  401ecc:	31 d2                	xor    %edx,%edx
  401ece:	c7 45 cc 01 00 00 00 	movl   $0x1,-0x34(%ebp)
  401ed5:	e9 a5 fe ff ff       	jmp    401d7f <__setargv+0x18f>
  401eda:	8d b6 00 00 00 00    	lea    0x0(%esi),%esi
  401ee0:	80 fb 5a             	cmp    $0x5a,%bl
  401ee3:	0f 8e a9 fd ff ff    	jle    401c92 <__setargv+0xa2>
  401ee9:	8d 4b a5             	lea    -0x5b(%ebx),%ecx
  401eec:	80 f9 24             	cmp    $0x24,%cl
  401eef:	0f 87 9d fd ff ff    	ja     401c92 <__setargv+0xa2>
  401ef5:	0f b6 c9             	movzbl %cl,%ecx
  401ef8:	ff 24 8d b4 62 40 00 	jmp    *0x4062b4(,%ecx,4)
  401eff:	83 7d d0 27          	cmpl   $0x27,-0x30(%ebp)
  401f03:	74 4b                	je     401f50 <__setargv+0x360>
  401f05:	83 c2 01             	add    $0x1,%edx
  401f08:	e9 72 fe ff ff       	jmp    401d7f <__setargv+0x18f>
  401f0d:	8d 72 ff             	lea    -0x1(%edx),%esi
  401f10:	f6 05 04 50 40 00 20 	testb  $0x20,0x405004
  401f17:	0f 85 ec fe ff ff    	jne    401e09 <__setargv+0x219>
  401f1d:	b9 01 00 00 00       	mov    $0x1,%ecx
  401f22:	85 d2                	test   %edx,%edx
  401f24:	0f 85 f9 fe ff ff    	jne    401e23 <__setargv+0x233>
  401f2a:	89 c2                	mov    %eax,%edx
  401f2c:	e9 14 ff ff ff       	jmp    401e45 <__setargv+0x255>
  401f31:	8d b4 26 00 00 00 00 	lea    0x0(%esi,%eiz,1),%esi
  401f38:	c6 01 22             	movb   $0x22,(%ecx)
  401f3b:	8d 41 01             	lea    0x1(%ecx),%eax
  401f3e:	31 d2                	xor    %edx,%edx
  401f40:	c7 45 cc 01 00 00 00 	movl   $0x1,-0x34(%ebp)
  401f47:	e9 33 fe ff ff       	jmp    401d7f <__setargv+0x18f>
  401f4c:	8d 74 26 00          	lea    0x0(%esi,%eiz,1),%esi
  401f50:	c6 00 5c             	movb   $0x5c,(%eax)
  401f53:	83 c0 01             	add    $0x1,%eax
  401f56:	e9 24 fe ff ff       	jmp    401d7f <__setargv+0x18f>
  401f5b:	83 75 d0 27          	xorl   $0x27,-0x30(%ebp)
  401f5f:	89 c8                	mov    %ecx,%eax
  401f61:	31 d2                	xor    %edx,%edx
  401f63:	c7 45 cc 01 00 00 00 	movl   $0x1,-0x34(%ebp)
  401f6a:	e9 10 fe ff ff       	jmp    401d7f <__setargv+0x18f>
  401f6f:	89 c6                	mov    %eax,%esi
  401f71:	e9 35 fd ff ff       	jmp    401cab <__setargv+0xbb>
  401f76:	89 c2                	mov    %eax,%edx
  401f78:	e9 be fe ff ff       	jmp    401e3b <__setargv+0x24b>
  401f7d:	89 c1                	mov    %eax,%ecx
  401f7f:	e9 37 ff ff ff       	jmp    401ebb <__setargv+0x2cb>
  401f84:	89 c1                	mov    %eax,%ecx
  401f86:	e9 f0 fe ff ff       	jmp    401e7b <__setargv+0x28b>
  401f8b:	90                   	nop
  401f8c:	90                   	nop
  401f8d:	90                   	nop
  401f8e:	90                   	nop
  401f8f:	90                   	nop

00401f90 <___cpu_features_init>:
  401f90:	9c                   	pushf  
  401f91:	9c                   	pushf  
  401f92:	58                   	pop    %eax
  401f93:	89 c2                	mov    %eax,%edx
  401f95:	35 00 00 20 00       	xor    $0x200000,%eax
  401f9a:	50                   	push   %eax
  401f9b:	9d                   	popf   
  401f9c:	9c                   	pushf  
  401f9d:	58                   	pop    %eax
  401f9e:	9d                   	popf   
  401f9f:	31 d0                	xor    %edx,%eax
  401fa1:	a9 00 00 20 00       	test   $0x200000,%eax
  401fa6:	0f 84 e9 00 00 00    	je     402095 <___cpu_features_init+0x105>
  401fac:	53                   	push   %ebx
  401fad:	31 c0                	xor    %eax,%eax
  401faf:	0f a2                	cpuid  
  401fb1:	85 c0                	test   %eax,%eax
  401fb3:	0f 84 db 00 00 00    	je     402094 <___cpu_features_init+0x104>
  401fb9:	b8 01 00 00 00       	mov    $0x1,%eax
  401fbe:	0f a2                	cpuid  
  401fc0:	31 c0                	xor    %eax,%eax
  401fc2:	f6 c6 01             	test   $0x1,%dh
  401fc5:	74 03                	je     401fca <___cpu_features_init+0x3a>
  401fc7:	83 c8 01             	or     $0x1,%eax
  401fca:	f6 c5 20             	test   $0x20,%ch
  401fcd:	74 05                	je     401fd4 <___cpu_features_init+0x44>
  401fcf:	0d 80 00 00 00       	or     $0x80,%eax
  401fd4:	f6 c6 80             	test   $0x80,%dh
  401fd7:	74 03                	je     401fdc <___cpu_features_init+0x4c>
  401fd9:	83 c8 02             	or     $0x2,%eax
  401fdc:	f7 c2 00 00 80 00    	test   $0x800000,%edx
  401fe2:	74 03                	je     401fe7 <___cpu_features_init+0x57>
  401fe4:	83 c8 04             	or     $0x4,%eax
  401fe7:	f7 c2 00 00 00 01    	test   $0x1000000,%edx
  401fed:	74 6d                	je     40205c <___cpu_features_init+0xcc>
  401fef:	83 c8 08             	or     $0x8,%eax
  401ff2:	55                   	push   %ebp
  401ff3:	89 e5                	mov    %esp,%ebp
  401ff5:	81 ec 00 02 00 00    	sub    $0x200,%esp
  401ffb:	83 e4 f0             	and    $0xfffffff0,%esp
  401ffe:	0f ae 04 24          	fxsave (%esp)
  402002:	8b 9c 24 c8 00 00 00 	mov    0xc8(%esp),%ebx
  402009:	81 b4 24 c8 00 00 00 	xorl   $0x13c0de,0xc8(%esp)
  402010:	de c0 13 00 
  402014:	0f ae 0c 24          	fxrstor (%esp)
  402018:	89 9c 24 c8 00 00 00 	mov    %ebx,0xc8(%esp)
  40201f:	0f ae 04 24          	fxsave (%esp)
  402023:	87 9c 24 c8 00 00 00 	xchg   %ebx,0xc8(%esp)
  40202a:	0f ae 0c 24          	fxrstor (%esp)
  40202e:	33 9c 24 c8 00 00 00 	xor    0xc8(%esp),%ebx
  402035:	c9                   	leave  
  402036:	81 fb de c0 13 00    	cmp    $0x13c0de,%ebx
  40203c:	75 1e                	jne    40205c <___cpu_features_init+0xcc>
  40203e:	f7 c2 00 00 00 02    	test   $0x2000000,%edx
  402044:	74 03                	je     402049 <___cpu_features_init+0xb9>
  402046:	83 c8 10             	or     $0x10,%eax
  402049:	f7 c2 00 00 00 04    	test   $0x4000000,%edx
  40204f:	74 03                	je     402054 <___cpu_features_init+0xc4>
  402051:	83 c8 20             	or     $0x20,%eax
  402054:	f6 c1 01             	test   $0x1,%cl
  402057:	74 03                	je     40205c <___cpu_features_init+0xcc>
  402059:	83 c8 40             	or     $0x40,%eax
  40205c:	a3 28 80 40 00       	mov    %eax,0x408028
  402061:	b8 00 00 00 80       	mov    $0x80000000,%eax
  402066:	0f a2                	cpuid  
  402068:	3d 00 00 00 80       	cmp    $0x80000000,%eax
  40206d:	76 25                	jbe    402094 <___cpu_features_init+0x104>
  40206f:	b8 01 00 00 80       	mov    $0x80000001,%eax
  402074:	0f a2                	cpuid  
  402076:	31 c0                	xor    %eax,%eax
  402078:	85 d2                	test   %edx,%edx
  40207a:	79 05                	jns    402081 <___cpu_features_init+0xf1>
  40207c:	b8 00 01 00 00       	mov    $0x100,%eax
  402081:	f7 c2 00 00 00 40    	test   $0x40000000,%edx
  402087:	74 05                	je     40208e <___cpu_features_init+0xfe>
  402089:	0d 00 02 00 00       	or     $0x200,%eax
  40208e:	09 05 28 80 40 00    	or     %eax,0x408028
  402094:	5b                   	pop    %ebx
  402095:	f3 c3                	repz ret 
  402097:	90                   	nop
  402098:	90                   	nop
  402099:	90                   	nop
  40209a:	90                   	nop
  40209b:	90                   	nop
  40209c:	90                   	nop
  40209d:	90                   	nop
  40209e:	90                   	nop
  40209f:	90                   	nop

004020a0 <___do_global_dtors>:
  4020a0:	a1 10 50 40 00       	mov    0x405010,%eax
  4020a5:	8b 00                	mov    (%eax),%eax
  4020a7:	85 c0                	test   %eax,%eax
  4020a9:	74 25                	je     4020d0 <___do_global_dtors+0x30>
  4020ab:	83 ec 0c             	sub    $0xc,%esp
  4020ae:	66 90                	xchg   %ax,%ax
  4020b0:	ff d0                	call   *%eax
  4020b2:	a1 10 50 40 00       	mov    0x405010,%eax
  4020b7:	8d 50 04             	lea    0x4(%eax),%edx
  4020ba:	8b 40 04             	mov    0x4(%eax),%eax
  4020bd:	89 15 10 50 40 00    	mov    %edx,0x405010
  4020c3:	85 c0                	test   %eax,%eax
  4020c5:	75 e9                	jne    4020b0 <___do_global_dtors+0x10>
  4020c7:	83 c4 0c             	add    $0xc,%esp
  4020ca:	c3                   	ret    
  4020cb:	8d 74 26 00          	lea    0x0(%esi,%eiz,1),%esi
  4020cf:	90                   	nop
  4020d0:	c3                   	ret    
  4020d1:	8d b4 26 00 00 00 00 	lea    0x0(%esi,%eiz,1),%esi
  4020d8:	8d b4 26 00 00 00 00 	lea    0x0(%esi,%eiz,1),%esi
  4020df:	90                   	nop

004020e0 <___do_global_ctors>:
  4020e0:	53                   	push   %ebx
  4020e1:	83 ec 18             	sub    $0x18,%esp
  4020e4:	8b 1d e0 46 40 00    	mov    0x4046e0,%ebx
  4020ea:	83 fb ff             	cmp    $0xffffffff,%ebx
  4020ed:	74 29                	je     402118 <___do_global_ctors+0x38>
  4020ef:	85 db                	test   %ebx,%ebx
  4020f1:	74 11                	je     402104 <___do_global_ctors+0x24>
  4020f3:	8d 74 26 00          	lea    0x0(%esi,%eiz,1),%esi
  4020f7:	90                   	nop
  4020f8:	ff 14 9d e0 46 40 00 	call   *0x4046e0(,%ebx,4)
  4020ff:	83 eb 01             	sub    $0x1,%ebx
  402102:	75 f4                	jne    4020f8 <___do_global_ctors+0x18>
  402104:	c7 04 24 a0 20 40 00 	movl   $0x4020a0,(%esp)
  40210b:	e8 00 f2 ff ff       	call   401310 <_atexit>
  402110:	83 c4 18             	add    $0x18,%esp
  402113:	5b                   	pop    %ebx
  402114:	c3                   	ret    
  402115:	8d 76 00             	lea    0x0(%esi),%esi
  402118:	31 c0                	xor    %eax,%eax
  40211a:	8d b6 00 00 00 00    	lea    0x0(%esi),%esi
  402120:	89 c3                	mov    %eax,%ebx
  402122:	83 c0 01             	add    $0x1,%eax
  402125:	8b 14 85 e0 46 40 00 	mov    0x4046e0(,%eax,4),%edx
  40212c:	85 d2                	test   %edx,%edx
  40212e:	75 f0                	jne    402120 <___do_global_ctors+0x40>
  402130:	eb bd                	jmp    4020ef <___do_global_ctors+0xf>
  402132:	8d b4 26 00 00 00 00 	lea    0x0(%esi,%eiz,1),%esi
  402139:	8d b4 26 00 00 00 00 	lea    0x0(%esi,%eiz,1),%esi

00402140 <___main>:
  402140:	a1 2c 80 40 00       	mov    0x40802c,%eax
  402145:	85 c0                	test   %eax,%eax
  402147:	74 07                	je     402150 <___main+0x10>
  402149:	c3                   	ret    
  40214a:	8d b6 00 00 00 00    	lea    0x0(%esi),%esi
  402150:	c7 05 2c 80 40 00 01 	movl   $0x1,0x40802c
  402157:	00 00 00 
  40215a:	eb 84                	jmp    4020e0 <___do_global_ctors>
  40215c:	90                   	nop
  40215d:	90                   	nop
  40215e:	90                   	nop
  40215f:	90                   	nop

00402160 <.text>:
  402160:	83 ec 1c             	sub    $0x1c,%esp
  402163:	8b 44 24 24          	mov    0x24(%esp),%eax
  402167:	83 f8 03             	cmp    $0x3,%eax
  40216a:	74 14                	je     402180 <.text+0x20>
  40216c:	85 c0                	test   %eax,%eax
  40216e:	74 10                	je     402180 <.text+0x20>
  402170:	b8 01 00 00 00       	mov    $0x1,%eax
  402175:	83 c4 1c             	add    $0x1c,%esp
  402178:	c2 0c 00             	ret    $0xc
  40217b:	8d 74 26 00          	lea    0x0(%esi,%eiz,1),%esi
  40217f:	90                   	nop
  402180:	89 44 24 04          	mov    %eax,0x4(%esp)
  402184:	8b 54 24 28          	mov    0x28(%esp),%edx
  402188:	8b 44 24 20          	mov    0x20(%esp),%eax
  40218c:	89 54 24 08          	mov    %edx,0x8(%esp)
  402190:	89 04 24             	mov    %eax,(%esp)
  402193:	e8 48 02 00 00       	call   4023e0 <___mingw_TLScallback>
  402198:	b8 01 00 00 00       	mov    $0x1,%eax
  40219d:	83 c4 1c             	add    $0x1c,%esp
  4021a0:	c2 0c 00             	ret    $0xc
  4021a3:	8d b4 26 00 00 00 00 	lea    0x0(%esi,%eiz,1),%esi
  4021aa:	8d b6 00 00 00 00    	lea    0x0(%esi),%esi

004021b0 <___dyn_tls_init@12>:
  4021b0:	56                   	push   %esi
  4021b1:	53                   	push   %ebx
  4021b2:	83 ec 14             	sub    $0x14,%esp
  4021b5:	83 3d 68 80 40 00 02 	cmpl   $0x2,0x408068
  4021bc:	8b 44 24 24          	mov    0x24(%esp),%eax
  4021c0:	74 0a                	je     4021cc <___dyn_tls_init@12+0x1c>
  4021c2:	c7 05 68 80 40 00 02 	movl   $0x2,0x408068
  4021c9:	00 00 00 
  4021cc:	83 f8 02             	cmp    $0x2,%eax
  4021cf:	74 17                	je     4021e8 <___dyn_tls_init@12+0x38>
  4021d1:	83 f8 01             	cmp    $0x1,%eax
  4021d4:	74 52                	je     402228 <___dyn_tls_init@12+0x78>
  4021d6:	83 c4 14             	add    $0x14,%esp
  4021d9:	b8 01 00 00 00       	mov    $0x1,%eax
  4021de:	5b                   	pop    %ebx
  4021df:	5e                   	pop    %esi
  4021e0:	c2 0c 00             	ret    $0xc
  4021e3:	8d 74 26 00          	lea    0x0(%esi,%eiz,1),%esi
  4021e7:	90                   	nop
  4021e8:	b8 14 a0 40 00       	mov    $0x40a014,%eax
  4021ed:	2d 14 a0 40 00       	sub    $0x40a014,%eax
  4021f2:	89 c6                	mov    %eax,%esi
  4021f4:	c1 fe 02             	sar    $0x2,%esi
  4021f7:	85 c0                	test   %eax,%eax
  4021f9:	7e db                	jle    4021d6 <___dyn_tls_init@12+0x26>
  4021fb:	31 db                	xor    %ebx,%ebx
  4021fd:	8d 76 00             	lea    0x0(%esi),%esi
  402200:	8b 04 9d 14 a0 40 00 	mov    0x40a014(,%ebx,4),%eax
  402207:	85 c0                	test   %eax,%eax
  402209:	74 02                	je     40220d <___dyn_tls_init@12+0x5d>
  40220b:	ff d0                	call   *%eax
  40220d:	83 c3 01             	add    $0x1,%ebx
  402210:	39 de                	cmp    %ebx,%esi
  402212:	7f ec                	jg     402200 <___dyn_tls_init@12+0x50>
  402214:	83 c4 14             	add    $0x14,%esp
  402217:	b8 01 00 00 00       	mov    $0x1,%eax
  40221c:	5b                   	pop    %ebx
  40221d:	5e                   	pop    %esi
  40221e:	c2 0c 00             	ret    $0xc
  402221:	8d b4 26 00 00 00 00 	lea    0x0(%esi,%eiz,1),%esi
  402228:	8b 44 24 28          	mov    0x28(%esp),%eax
  40222c:	c7 44 24 04 01 00 00 	movl   $0x1,0x4(%esp)
  402233:	00 
  402234:	89 44 24 08          	mov    %eax,0x8(%esp)
  402238:	8b 44 24 20          	mov    0x20(%esp),%eax
  40223c:	89 04 24             	mov    %eax,(%esp)
  40223f:	e8 9c 01 00 00       	call   4023e0 <___mingw_TLScallback>
  402244:	83 c4 14             	add    $0x14,%esp
  402247:	b8 01 00 00 00       	mov    $0x1,%eax
  40224c:	5b                   	pop    %ebx
  40224d:	5e                   	pop    %esi
  40224e:	c2 0c 00             	ret    $0xc
  402251:	8d b4 26 00 00 00 00 	lea    0x0(%esi,%eiz,1),%esi
  402258:	8d b4 26 00 00 00 00 	lea    0x0(%esi,%eiz,1),%esi
  40225f:	90                   	nop

00402260 <___tlregdtor>:
  402260:	31 c0                	xor    %eax,%eax
  402262:	c3                   	ret    
  402263:	90                   	nop
  402264:	90                   	nop
  402265:	90                   	nop
  402266:	90                   	nop
  402267:	90                   	nop
  402268:	90                   	nop
  402269:	90                   	nop
  40226a:	90                   	nop
  40226b:	90                   	nop
  40226c:	90                   	nop
  40226d:	90                   	nop
  40226e:	90                   	nop
  40226f:	90                   	nop

00402270 <.text>:
  402270:	56                   	push   %esi
  402271:	53                   	push   %ebx
  402272:	83 ec 14             	sub    $0x14,%esp
  402275:	c7 04 24 48 80 40 00 	movl   $0x408048,(%esp)
  40227c:	e8 33 24 00 00       	call   4046b4 <_EnterCriticalSection@4>
  402281:	8b 1d 40 80 40 00    	mov    0x408040,%ebx
  402287:	83 ec 04             	sub    $0x4,%esp
  40228a:	85 db                	test   %ebx,%ebx
  40228c:	74 2d                	je     4022bb <.text+0x4b>
  40228e:	66 90                	xchg   %ax,%ax
  402290:	8b 03                	mov    (%ebx),%eax
  402292:	89 04 24             	mov    %eax,(%esp)
  402295:	e8 aa 23 00 00       	call   404644 <_TlsGetValue@4>
  40229a:	83 ec 04             	sub    $0x4,%esp
  40229d:	89 c6                	mov    %eax,%esi
  40229f:	e8 d8 23 00 00       	call   40467c <_GetLastError@0>
  4022a4:	85 c0                	test   %eax,%eax
  4022a6:	75 0c                	jne    4022b4 <.text+0x44>
  4022a8:	85 f6                	test   %esi,%esi
  4022aa:	74 08                	je     4022b4 <.text+0x44>
  4022ac:	8b 43 04             	mov    0x4(%ebx),%eax
  4022af:	89 34 24             	mov    %esi,(%esp)
  4022b2:	ff d0                	call   *%eax
  4022b4:	8b 5b 08             	mov    0x8(%ebx),%ebx
  4022b7:	85 db                	test   %ebx,%ebx
  4022b9:	75 d5                	jne    402290 <.text+0x20>
  4022bb:	c7 04 24 48 80 40 00 	movl   $0x408048,(%esp)
  4022c2:	e8 95 23 00 00       	call   40465c <_LeaveCriticalSection@4>
  4022c7:	83 ec 04             	sub    $0x4,%esp
  4022ca:	83 c4 14             	add    $0x14,%esp
  4022cd:	5b                   	pop    %ebx
  4022ce:	5e                   	pop    %esi
  4022cf:	c3                   	ret    

004022d0 <____w64_mingwthr_add_key_dtor>:
  4022d0:	a1 44 80 40 00       	mov    0x408044,%eax
  4022d5:	85 c0                	test   %eax,%eax
  4022d7:	75 07                	jne    4022e0 <____w64_mingwthr_add_key_dtor+0x10>
  4022d9:	c3                   	ret    
  4022da:	8d b6 00 00 00 00    	lea    0x0(%esi),%esi
  4022e0:	53                   	push   %ebx
  4022e1:	83 ec 18             	sub    $0x18,%esp
  4022e4:	c7 44 24 04 0c 00 00 	movl   $0xc,0x4(%esp)
  4022eb:	00 
  4022ec:	c7 04 24 01 00 00 00 	movl   $0x1,(%esp)
  4022f3:	e8 e4 22 00 00       	call   4045dc <_calloc>
  4022f8:	89 c3                	mov    %eax,%ebx
  4022fa:	85 c0                	test   %eax,%eax
  4022fc:	74 40                	je     40233e <____w64_mingwthr_add_key_dtor+0x6e>
  4022fe:	8b 44 24 20          	mov    0x20(%esp),%eax
  402302:	c7 04 24 48 80 40 00 	movl   $0x408048,(%esp)
  402309:	89 03                	mov    %eax,(%ebx)
  40230b:	8b 44 24 24          	mov    0x24(%esp),%eax
  40230f:	89 43 04             	mov    %eax,0x4(%ebx)
  402312:	e8 9d 23 00 00       	call   4046b4 <_EnterCriticalSection@4>
  402317:	a1 40 80 40 00       	mov    0x408040,%eax
  40231c:	89 1d 40 80 40 00    	mov    %ebx,0x408040
  402322:	83 ec 04             	sub    $0x4,%esp
  402325:	c7 04 24 48 80 40 00 	movl   $0x408048,(%esp)
  40232c:	89 43 08             	mov    %eax,0x8(%ebx)
  40232f:	e8 28 23 00 00       	call   40465c <_LeaveCriticalSection@4>
  402334:	31 c0                	xor    %eax,%eax
  402336:	83 ec 04             	sub    $0x4,%esp
  402339:	83 c4 18             	add    $0x18,%esp
  40233c:	5b                   	pop    %ebx
  40233d:	c3                   	ret    
  40233e:	83 c8 ff             	or     $0xffffffff,%eax
  402341:	eb f6                	jmp    402339 <____w64_mingwthr_add_key_dtor+0x69>
  402343:	8d b4 26 00 00 00 00 	lea    0x0(%esi,%eiz,1),%esi
  40234a:	8d b6 00 00 00 00    	lea    0x0(%esi),%esi

00402350 <____w64_mingwthr_remove_key_dtor>:
  402350:	53                   	push   %ebx
  402351:	83 ec 18             	sub    $0x18,%esp
  402354:	a1 44 80 40 00       	mov    0x408044,%eax
  402359:	8b 5c 24 20          	mov    0x20(%esp),%ebx
  40235d:	85 c0                	test   %eax,%eax
  40235f:	75 0f                	jne    402370 <____w64_mingwthr_remove_key_dtor+0x20>
  402361:	83 c4 18             	add    $0x18,%esp
  402364:	31 c0                	xor    %eax,%eax
  402366:	5b                   	pop    %ebx
  402367:	c3                   	ret    
  402368:	8d b4 26 00 00 00 00 	lea    0x0(%esi,%eiz,1),%esi
  40236f:	90                   	nop
  402370:	c7 04 24 48 80 40 00 	movl   $0x408048,(%esp)
  402377:	e8 38 23 00 00       	call   4046b4 <_EnterCriticalSection@4>
  40237c:	a1 40 80 40 00       	mov    0x408040,%eax
  402381:	83 ec 04             	sub    $0x4,%esp
  402384:	85 c0                	test   %eax,%eax
  402386:	74 28                	je     4023b0 <____w64_mingwthr_remove_key_dtor+0x60>
  402388:	31 c9                	xor    %ecx,%ecx
  40238a:	eb 0c                	jmp    402398 <____w64_mingwthr_remove_key_dtor+0x48>
  40238c:	8d 74 26 00          	lea    0x0(%esi,%eiz,1),%esi
  402390:	89 c1                	mov    %eax,%ecx
  402392:	85 d2                	test   %edx,%edx
  402394:	74 1a                	je     4023b0 <____w64_mingwthr_remove_key_dtor+0x60>
  402396:	89 d0                	mov    %edx,%eax
  402398:	8b 10                	mov    (%eax),%edx
  40239a:	39 da                	cmp    %ebx,%edx
  40239c:	8b 50 08             	mov    0x8(%eax),%edx
  40239f:	75 ef                	jne    402390 <____w64_mingwthr_remove_key_dtor+0x40>
  4023a1:	85 c9                	test   %ecx,%ecx
  4023a3:	74 2b                	je     4023d0 <____w64_mingwthr_remove_key_dtor+0x80>
  4023a5:	89 51 08             	mov    %edx,0x8(%ecx)
  4023a8:	89 04 24             	mov    %eax,(%esp)
  4023ab:	e8 a0 04 00 00       	call   402850 <___mingw_aligned_free>
  4023b0:	c7 04 24 48 80 40 00 	movl   $0x408048,(%esp)
  4023b7:	e8 a0 22 00 00       	call   40465c <_LeaveCriticalSection@4>
  4023bc:	31 c0                	xor    %eax,%eax
  4023be:	83 ec 04             	sub    $0x4,%esp
  4023c1:	83 c4 18             	add    $0x18,%esp
  4023c4:	5b                   	pop    %ebx
  4023c5:	c3                   	ret    
  4023c6:	8d b4 26 00 00 00 00 	lea    0x0(%esi,%eiz,1),%esi
  4023cd:	8d 76 00             	lea    0x0(%esi),%esi
  4023d0:	89 15 40 80 40 00    	mov    %edx,0x408040
  4023d6:	eb d0                	jmp    4023a8 <____w64_mingwthr_remove_key_dtor+0x58>
  4023d8:	8d b4 26 00 00 00 00 	lea    0x0(%esi,%eiz,1),%esi
  4023df:	90                   	nop

004023e0 <___mingw_TLScallback>:
  4023e0:	83 ec 1c             	sub    $0x1c,%esp
  4023e3:	8b 44 24 24          	mov    0x24(%esp),%eax
  4023e7:	83 f8 01             	cmp    $0x1,%eax
  4023ea:	74 14                	je     402400 <___mingw_TLScallback+0x20>
  4023ec:	83 f8 03             	cmp    $0x3,%eax
  4023ef:	74 5f                	je     402450 <___mingw_TLScallback+0x70>
  4023f1:	85 c0                	test   %eax,%eax
  4023f3:	74 2b                	je     402420 <___mingw_TLScallback+0x40>
  4023f5:	b8 01 00 00 00       	mov    $0x1,%eax
  4023fa:	83 c4 1c             	add    $0x1c,%esp
  4023fd:	c3                   	ret    
  4023fe:	66 90                	xchg   %ax,%ax
  402400:	a1 44 80 40 00       	mov    0x408044,%eax
  402405:	85 c0                	test   %eax,%eax
  402407:	74 7f                	je     402488 <___mingw_TLScallback+0xa8>
  402409:	c7 05 44 80 40 00 01 	movl   $0x1,0x408044
  402410:	00 00 00 
  402413:	b8 01 00 00 00       	mov    $0x1,%eax
  402418:	83 c4 1c             	add    $0x1c,%esp
  40241b:	c3                   	ret    
  40241c:	8d 74 26 00          	lea    0x0(%esi,%eiz,1),%esi
  402420:	a1 44 80 40 00       	mov    0x408044,%eax
  402425:	85 c0                	test   %eax,%eax
  402427:	75 47                	jne    402470 <___mingw_TLScallback+0x90>
  402429:	a1 44 80 40 00       	mov    0x408044,%eax
  40242e:	83 f8 01             	cmp    $0x1,%eax
  402431:	75 c2                	jne    4023f5 <___mingw_TLScallback+0x15>
  402433:	c7 04 24 48 80 40 00 	movl   $0x408048,(%esp)
  40243a:	c7 05 44 80 40 00 00 	movl   $0x0,0x408044
  402441:	00 00 00 
  402444:	e8 73 22 00 00       	call   4046bc <_DeleteCriticalSection@4>
  402449:	83 ec 04             	sub    $0x4,%esp
  40244c:	eb a7                	jmp    4023f5 <___mingw_TLScallback+0x15>
  40244e:	66 90                	xchg   %ax,%ax
  402450:	a1 44 80 40 00       	mov    0x408044,%eax
  402455:	85 c0                	test   %eax,%eax
  402457:	74 9c                	je     4023f5 <___mingw_TLScallback+0x15>
  402459:	e8 12 fe ff ff       	call   402270 <.text>
  40245e:	b8 01 00 00 00       	mov    $0x1,%eax
  402463:	83 c4 1c             	add    $0x1c,%esp
  402466:	c3                   	ret    
  402467:	8d b4 26 00 00 00 00 	lea    0x0(%esi,%eiz,1),%esi
  40246e:	66 90                	xchg   %ax,%ax
  402470:	e8 fb fd ff ff       	call   402270 <.text>
  402475:	a1 44 80 40 00       	mov    0x408044,%eax
  40247a:	83 f8 01             	cmp    $0x1,%eax
  40247d:	0f 85 72 ff ff ff    	jne    4023f5 <___mingw_TLScallback+0x15>
  402483:	eb ae                	jmp    402433 <___mingw_TLScallback+0x53>
  402485:	8d 76 00             	lea    0x0(%esi),%esi
  402488:	c7 04 24 48 80 40 00 	movl   $0x408048,(%esp)
  40248f:	e8 d0 21 00 00       	call   404664 <_InitializeCriticalSection@4>
  402494:	83 ec 04             	sub    $0x4,%esp
  402497:	e9 6d ff ff ff       	jmp    402409 <___mingw_TLScallback+0x29>
  40249c:	90                   	nop
  40249d:	90                   	nop
  40249e:	90                   	nop
  40249f:	90                   	nop

004024a0 <.text>:
  4024a0:	56                   	push   %esi
  4024a1:	53                   	push   %ebx
  4024a2:	83 ec 14             	sub    $0x14,%esp
  4024a5:	a1 30 92 40 00       	mov    0x409230,%eax
  4024aa:	c7 44 24 08 17 00 00 	movl   $0x17,0x8(%esp)
  4024b1:	00 
  4024b2:	8d 74 24 24          	lea    0x24(%esp),%esi
  4024b6:	8d 58 40             	lea    0x40(%eax),%ebx
  4024b9:	c7 44 24 04 01 00 00 	movl   $0x1,0x4(%esp)
  4024c0:	00 
  4024c1:	89 5c 24 0c          	mov    %ebx,0xc(%esp)
  4024c5:	c7 04 24 4c 63 40 00 	movl   $0x40634c,(%esp)
  4024cc:	e8 03 21 00 00       	call   4045d4 <_fwrite>
  4024d1:	8b 44 24 20          	mov    0x20(%esp),%eax
  4024d5:	89 74 24 08          	mov    %esi,0x8(%esp)
  4024d9:	89 1c 24             	mov    %ebx,(%esp)
  4024dc:	89 44 24 04          	mov    %eax,0x4(%esp)
  4024e0:	e8 97 20 00 00       	call   40457c <_vfprintf>
  4024e5:	e8 fa 20 00 00       	call   4045e4 <_abort>
  4024ea:	8d b6 00 00 00 00    	lea    0x0(%esi),%esi
  4024f0:	55                   	push   %ebp
  4024f1:	57                   	push   %edi
  4024f2:	89 d7                	mov    %edx,%edi
  4024f4:	56                   	push   %esi
  4024f5:	89 ce                	mov    %ecx,%esi
  4024f7:	53                   	push   %ebx
  4024f8:	89 c3                	mov    %eax,%ebx
  4024fa:	83 ec 3c             	sub    $0x3c,%esp
  4024fd:	8d 44 24 14          	lea    0x14(%esp),%eax
  402501:	c7 44 24 08 1c 00 00 	movl   $0x1c,0x8(%esp)
  402508:	00 
  402509:	89 44 24 04          	mov    %eax,0x4(%esp)
  40250d:	89 1c 24             	mov    %ebx,(%esp)
  402510:	e8 1f 21 00 00       	call   404634 <_VirtualQuery@12>
  402515:	83 ec 0c             	sub    $0xc,%esp
  402518:	85 c0                	test   %eax,%eax
  40251a:	0f 84 a4 00 00 00    	je     4025c4 <.text+0x124>
  402520:	8b 44 24 28          	mov    0x28(%esp),%eax
  402524:	83 f8 40             	cmp    $0x40,%eax
  402527:	74 05                	je     40252e <.text+0x8e>
  402529:	83 f8 04             	cmp    $0x4,%eax
  40252c:	75 22                	jne    402550 <.text+0xb0>
  40252e:	85 f6                	test   %esi,%esi
  402530:	74 10                	je     402542 <.text+0xa2>
  402532:	31 c0                	xor    %eax,%eax
  402534:	0f b6 0c 07          	movzbl (%edi,%eax,1),%ecx
  402538:	88 0c 03             	mov    %cl,(%ebx,%eax,1)
  40253b:	83 c0 01             	add    $0x1,%eax
  40253e:	39 f0                	cmp    %esi,%eax
  402540:	72 f2                	jb     402534 <.text+0x94>
  402542:	83 c4 3c             	add    $0x3c,%esp
  402545:	5b                   	pop    %ebx
  402546:	5e                   	pop    %esi
  402547:	5f                   	pop    %edi
  402548:	5d                   	pop    %ebp
  402549:	c3                   	ret    
  40254a:	8d b6 00 00 00 00    	lea    0x0(%esi),%esi
  402550:	8b 44 24 20          	mov    0x20(%esp),%eax
  402554:	8d 6c 24 10          	lea    0x10(%esp),%ebp
  402558:	c7 44 24 08 40 00 00 	movl   $0x40,0x8(%esp)
  40255f:	00 
  402560:	89 6c 24 0c          	mov    %ebp,0xc(%esp)
  402564:	89 44 24 04          	mov    %eax,0x4(%esp)
  402568:	8b 44 24 14          	mov    0x14(%esp),%eax
  40256c:	89 04 24             	mov    %eax,(%esp)
  40256f:	e8 c8 20 00 00       	call   40463c <_VirtualProtect@16>
  402574:	83 ec 10             	sub    $0x10,%esp
  402577:	8b 4c 24 28          	mov    0x28(%esp),%ecx
  40257b:	85 f6                	test   %esi,%esi
  40257d:	74 10                	je     40258f <.text+0xef>
  40257f:	31 d2                	xor    %edx,%edx
  402581:	0f b6 04 17          	movzbl (%edi,%edx,1),%eax
  402585:	88 04 13             	mov    %al,(%ebx,%edx,1)
  402588:	83 c2 01             	add    $0x1,%edx
  40258b:	39 f2                	cmp    %esi,%edx
  40258d:	72 f2                	jb     402581 <.text+0xe1>
  40258f:	83 f9 40             	cmp    $0x40,%ecx
  402592:	74 ae                	je     402542 <.text+0xa2>
  402594:	83 f9 04             	cmp    $0x4,%ecx
  402597:	74 a9                	je     402542 <.text+0xa2>
  402599:	8b 44 24 10          	mov    0x10(%esp),%eax
  40259d:	89 6c 24 0c          	mov    %ebp,0xc(%esp)
  4025a1:	89 44 24 08          	mov    %eax,0x8(%esp)
  4025a5:	8b 44 24 20          	mov    0x20(%esp),%eax
  4025a9:	89 44 24 04          	mov    %eax,0x4(%esp)
  4025ad:	8b 44 24 14          	mov    0x14(%esp),%eax
  4025b1:	89 04 24             	mov    %eax,(%esp)
  4025b4:	e8 83 20 00 00       	call   40463c <_VirtualProtect@16>
  4025b9:	83 ec 10             	sub    $0x10,%esp
  4025bc:	83 c4 3c             	add    $0x3c,%esp
  4025bf:	5b                   	pop    %ebx
  4025c0:	5e                   	pop    %esi
  4025c1:	5f                   	pop    %edi
  4025c2:	5d                   	pop    %ebp
  4025c3:	c3                   	ret    
  4025c4:	89 5c 24 08          	mov    %ebx,0x8(%esp)
  4025c8:	c7 44 24 04 1c 00 00 	movl   $0x1c,0x4(%esp)
  4025cf:	00 
  4025d0:	c7 04 24 64 63 40 00 	movl   $0x406364,(%esp)
  4025d7:	e8 c4 fe ff ff       	call   4024a0 <.text>
  4025dc:	8d 74 26 00          	lea    0x0(%esi,%eiz,1),%esi

004025e0 <__pei386_runtime_relocator>:
  4025e0:	a1 60 80 40 00       	mov    0x408060,%eax
  4025e5:	85 c0                	test   %eax,%eax
  4025e7:	74 07                	je     4025f0 <__pei386_runtime_relocator+0x10>
  4025e9:	c3                   	ret    
  4025ea:	8d b6 00 00 00 00    	lea    0x0(%esi),%esi
  4025f0:	c7 05 60 80 40 00 01 	movl   $0x1,0x408060
  4025f7:	00 00 00 
  4025fa:	b8 e8 69 40 00       	mov    $0x4069e8,%eax
  4025ff:	2d 1c 69 40 00       	sub    $0x40691c,%eax
  402604:	83 f8 07             	cmp    $0x7,%eax
  402607:	7e e0                	jle    4025e9 <__pei386_runtime_relocator+0x9>
  402609:	57                   	push   %edi
  40260a:	56                   	push   %esi
  40260b:	53                   	push   %ebx
  40260c:	83 ec 20             	sub    $0x20,%esp
  40260f:	8b 15 1c 69 40 00    	mov    0x40691c,%edx
  402615:	83 f8 0b             	cmp    $0xb,%eax
  402618:	0f 8f 92 00 00 00    	jg     4026b0 <__pei386_runtime_relocator+0xd0>
  40261e:	bb 1c 69 40 00       	mov    $0x40691c,%ebx
  402623:	85 d2                	test   %edx,%edx
  402625:	0f 85 3a 01 00 00    	jne    402765 <__pei386_runtime_relocator+0x185>
  40262b:	8b 43 04             	mov    0x4(%ebx),%eax
  40262e:	85 c0                	test   %eax,%eax
  402630:	0f 85 2f 01 00 00    	jne    402765 <__pei386_runtime_relocator+0x185>
  402636:	8b 43 08             	mov    0x8(%ebx),%eax
  402639:	83 f8 01             	cmp    $0x1,%eax
  40263c:	0f 85 78 01 00 00    	jne    4027ba <__pei386_runtime_relocator+0x1da>
  402642:	8d b6 00 00 00 00    	lea    0x0(%esi),%esi
  402648:	83 c3 0c             	add    $0xc,%ebx
  40264b:	81 fb e8 69 40 00    	cmp    $0x4069e8,%ebx
  402651:	73 4c                	jae    40269f <__pei386_runtime_relocator+0xbf>
  402653:	8b 03                	mov    (%ebx),%eax
  402655:	8b 4b 04             	mov    0x4(%ebx),%ecx
  402658:	0f b6 53 08          	movzbl 0x8(%ebx),%edx
  40265c:	8d b8 00 00 40 00    	lea    0x400000(%eax),%edi
  402662:	8d b1 00 00 40 00    	lea    0x400000(%ecx),%esi
  402668:	8b 80 00 00 40 00    	mov    0x400000(%eax),%eax
  40266e:	83 fa 10             	cmp    $0x10,%edx
  402671:	0f 84 89 00 00 00    	je     402700 <__pei386_runtime_relocator+0x120>
  402677:	83 fa 20             	cmp    $0x20,%edx
  40267a:	75 64                	jne    4026e0 <__pei386_runtime_relocator+0x100>
  40267c:	29 f8                	sub    %edi,%eax
  40267e:	03 06                	add    (%esi),%eax
  402680:	b9 04 00 00 00       	mov    $0x4,%ecx
  402685:	83 c3 0c             	add    $0xc,%ebx
  402688:	89 44 24 1c          	mov    %eax,0x1c(%esp)
  40268c:	8d 54 24 1c          	lea    0x1c(%esp),%edx
  402690:	89 f0                	mov    %esi,%eax
  402692:	e8 59 fe ff ff       	call   4024f0 <.text+0x50>
  402697:	81 fb e8 69 40 00    	cmp    $0x4069e8,%ebx
  40269d:	72 b4                	jb     402653 <__pei386_runtime_relocator+0x73>
  40269f:	83 c4 20             	add    $0x20,%esp
  4026a2:	5b                   	pop    %ebx
  4026a3:	5e                   	pop    %esi
  4026a4:	5f                   	pop    %edi
  4026a5:	c3                   	ret    
  4026a6:	8d b4 26 00 00 00 00 	lea    0x0(%esi,%eiz,1),%esi
  4026ad:	8d 76 00             	lea    0x0(%esi),%esi
  4026b0:	85 d2                	test   %edx,%edx
  4026b2:	0f 85 a8 00 00 00    	jne    402760 <__pei386_runtime_relocator+0x180>
  4026b8:	a1 20 69 40 00       	mov    0x406920,%eax
  4026bd:	89 c7                	mov    %eax,%edi
  4026bf:	0b 3d 24 69 40 00    	or     0x406924,%edi
  4026c5:	0f 85 e5 00 00 00    	jne    4027b0 <__pei386_runtime_relocator+0x1d0>
  4026cb:	8b 15 28 69 40 00    	mov    0x406928,%edx
  4026d1:	bb 28 69 40 00       	mov    $0x406928,%ebx
  4026d6:	e9 48 ff ff ff       	jmp    402623 <__pei386_runtime_relocator+0x43>
  4026db:	8d 74 26 00          	lea    0x0(%esi,%eiz,1),%esi
  4026df:	90                   	nop
  4026e0:	83 fa 08             	cmp    $0x8,%edx
  4026e3:	74 4b                	je     402730 <__pei386_runtime_relocator+0x150>
  4026e5:	89 54 24 04          	mov    %edx,0x4(%esp)
  4026e9:	c7 04 24 cc 63 40 00 	movl   $0x4063cc,(%esp)
  4026f0:	c7 44 24 1c 00 00 00 	movl   $0x0,0x1c(%esp)
  4026f7:	00 
  4026f8:	e8 a3 fd ff ff       	call   4024a0 <.text>
  4026fd:	8d 76 00             	lea    0x0(%esi),%esi
  402700:	0f b7 91 00 00 40 00 	movzwl 0x400000(%ecx),%edx
  402707:	66 85 d2             	test   %dx,%dx
  40270a:	79 06                	jns    402712 <__pei386_runtime_relocator+0x132>
  40270c:	81 ca 00 00 ff ff    	or     $0xffff0000,%edx
  402712:	29 fa                	sub    %edi,%edx
  402714:	b9 02 00 00 00       	mov    $0x2,%ecx
  402719:	01 d0                	add    %edx,%eax
  40271b:	8d 54 24 1c          	lea    0x1c(%esp),%edx
  40271f:	89 44 24 1c          	mov    %eax,0x1c(%esp)
  402723:	89 f0                	mov    %esi,%eax
  402725:	e8 c6 fd ff ff       	call   4024f0 <.text+0x50>
  40272a:	e9 19 ff ff ff       	jmp    402648 <__pei386_runtime_relocator+0x68>
  40272f:	90                   	nop
  402730:	0f b6 0e             	movzbl (%esi),%ecx
  402733:	84 c9                	test   %cl,%cl
  402735:	79 06                	jns    40273d <__pei386_runtime_relocator+0x15d>
  402737:	81 c9 00 ff ff ff    	or     $0xffffff00,%ecx
  40273d:	29 f9                	sub    %edi,%ecx
  40273f:	8d 54 24 1c          	lea    0x1c(%esp),%edx
  402743:	01 c8                	add    %ecx,%eax
  402745:	b9 01 00 00 00       	mov    $0x1,%ecx
  40274a:	89 44 24 1c          	mov    %eax,0x1c(%esp)
  40274e:	89 f0                	mov    %esi,%eax
  402750:	e8 9b fd ff ff       	call   4024f0 <.text+0x50>
  402755:	e9 ee fe ff ff       	jmp    402648 <__pei386_runtime_relocator+0x68>
  40275a:	8d b6 00 00 00 00    	lea    0x0(%esi),%esi
  402760:	bb 1c 69 40 00       	mov    $0x40691c,%ebx
  402765:	81 fb e8 69 40 00    	cmp    $0x4069e8,%ebx
  40276b:	0f 83 2e ff ff ff    	jae    40269f <__pei386_runtime_relocator+0xbf>
  402771:	8d b4 26 00 00 00 00 	lea    0x0(%esi,%eiz,1),%esi
  402778:	8b 53 04             	mov    0x4(%ebx),%edx
  40277b:	8b 03                	mov    (%ebx),%eax
  40277d:	b9 04 00 00 00       	mov    $0x4,%ecx
  402782:	83 c3 08             	add    $0x8,%ebx
  402785:	03 82 00 00 40 00    	add    0x400000(%edx),%eax
  40278b:	8d b2 00 00 40 00    	lea    0x400000(%edx),%esi
  402791:	8d 54 24 1c          	lea    0x1c(%esp),%edx
  402795:	89 44 24 1c          	mov    %eax,0x1c(%esp)
  402799:	89 f0                	mov    %esi,%eax
  40279b:	e8 50 fd ff ff       	call   4024f0 <.text+0x50>
  4027a0:	81 fb e8 69 40 00    	cmp    $0x4069e8,%ebx
  4027a6:	72 d0                	jb     402778 <__pei386_runtime_relocator+0x198>
  4027a8:	83 c4 20             	add    $0x20,%esp
  4027ab:	5b                   	pop    %ebx
  4027ac:	5e                   	pop    %esi
  4027ad:	5f                   	pop    %edi
  4027ae:	c3                   	ret    
  4027af:	90                   	nop
  4027b0:	bb 1c 69 40 00       	mov    $0x40691c,%ebx
  4027b5:	e9 74 fe ff ff       	jmp    40262e <__pei386_runtime_relocator+0x4e>
  4027ba:	89 44 24 04          	mov    %eax,0x4(%esp)
  4027be:	c7 04 24 98 63 40 00 	movl   $0x406398,(%esp)
  4027c5:	e8 d6 fc ff ff       	call   4024a0 <.text>
  4027ca:	90                   	nop
  4027cb:	90                   	nop
  4027cc:	90                   	nop
  4027cd:	90                   	nop
  4027ce:	90                   	nop
  4027cf:	90                   	nop

004027d0 <_fesetenv>:
  4027d0:	83 ec 1c             	sub    $0x1c,%esp
  4027d3:	8b 44 24 20          	mov    0x20(%esp),%eax
  4027d7:	c7 44 24 0c 80 1f 00 	movl   $0x1f80,0xc(%esp)
  4027de:	00 
  4027df:	83 f8 fd             	cmp    $0xfffffffd,%eax
  4027e2:	74 4c                	je     402830 <_fesetenv+0x60>
  4027e4:	83 f8 fc             	cmp    $0xfffffffc,%eax
  4027e7:	74 2f                	je     402818 <_fesetenv+0x48>
  4027e9:	85 c0                	test   %eax,%eax
  4027eb:	74 53                	je     402840 <_fesetenv+0x70>
  4027ed:	83 f8 ff             	cmp    $0xffffffff,%eax
  4027f0:	74 48                	je     40283a <_fesetenv+0x6a>
  4027f2:	83 f8 fe             	cmp    $0xfffffffe,%eax
  4027f5:	74 2b                	je     402822 <_fesetenv+0x52>
  4027f7:	d9 20                	fldenv (%eax)
  4027f9:	0f b7 40 1c          	movzwl 0x1c(%eax),%eax
  4027fd:	89 44 24 0c          	mov    %eax,0xc(%esp)
  402801:	f6 05 28 80 40 00 10 	testb  $0x10,0x408028
  402808:	74 05                	je     40280f <_fesetenv+0x3f>
  40280a:	0f ae 54 24 0c       	ldmxcsr 0xc(%esp)
  40280f:	31 c0                	xor    %eax,%eax
  402811:	83 c4 1c             	add    $0x1c,%esp
  402814:	c3                   	ret    
  402815:	8d 76 00             	lea    0x0(%esi),%esi
  402818:	c7 05 14 50 40 00 fe 	movl   $0xfffffffe,0x405014
  40281f:	ff ff ff 
  402822:	ff 15 28 92 40 00    	call   *0x409228
  402828:	eb d7                	jmp    402801 <_fesetenv+0x31>
  40282a:	8d b6 00 00 00 00    	lea    0x0(%esi),%esi
  402830:	c7 05 14 50 40 00 ff 	movl   $0xffffffff,0x405014
  402837:	ff ff ff 
  40283a:	db e3                	fninit 
  40283c:	eb c3                	jmp    402801 <_fesetenv+0x31>
  40283e:	66 90                	xchg   %ax,%ax
  402840:	a1 14 50 40 00       	mov    0x405014,%eax
  402845:	eb a6                	jmp    4027ed <_fesetenv+0x1d>
  402847:	90                   	nop
  402848:	90                   	nop
  402849:	90                   	nop
  40284a:	90                   	nop
  40284b:	90                   	nop
  40284c:	90                   	nop
  40284d:	90                   	nop
  40284e:	90                   	nop
  40284f:	90                   	nop

00402850 <___mingw_aligned_free>:
  402850:	83 ec 2c             	sub    $0x2c,%esp
  402853:	8d 44 24 10          	lea    0x10(%esp),%eax
  402857:	89 44 24 04          	mov    %eax,0x4(%esp)
  40285b:	8b 44 24 30          	mov    0x30(%esp),%eax
  40285f:	89 04 24             	mov    %eax,(%esp)
  402862:	e8 99 1a 00 00       	call   404300 <___mingw_memalign_base>
  402867:	89 04 24             	mov    %eax,(%esp)
  40286a:	ff 15 88 92 40 00    	call   *0x409288
  402870:	83 c4 2c             	add    $0x2c,%esp
  402873:	c3                   	ret    
  402874:	90                   	nop
  402875:	90                   	nop
  402876:	90                   	nop
  402877:	90                   	nop
  402878:	90                   	nop
  402879:	90                   	nop
  40287a:	90                   	nop
  40287b:	90                   	nop
  40287c:	90                   	nop
  40287d:	90                   	nop
  40287e:	90                   	nop
  40287f:	90                   	nop

00402880 <.text>:
  402880:	55                   	push   %ebp
  402881:	57                   	push   %edi
  402882:	56                   	push   %esi
  402883:	53                   	push   %ebx
  402884:	83 ec 3c             	sub    $0x3c,%esp
  402887:	0f be 28             	movsbl (%eax),%ebp
  40288a:	89 54 24 1c          	mov    %edx,0x1c(%esp)
  40288e:	89 4c 24 28          	mov    %ecx,0x28(%esp)
  402892:	89 eb                	mov    %ebp,%ebx
  402894:	83 fd 2d             	cmp    $0x2d,%ebp
  402897:	0f 84 db 00 00 00    	je     402978 <.text+0xf8>
  40289d:	89 c2                	mov    %eax,%edx
  40289f:	83 fd 5d             	cmp    $0x5d,%ebp
  4028a2:	0f 84 d0 00 00 00    	je     402978 <.text+0xf8>
  4028a8:	8b 44 24 28          	mov    0x28(%esp),%eax
  4028ac:	25 00 40 00 00       	and    $0x4000,%eax
  4028b1:	89 44 24 20          	mov    %eax,0x20(%esp)
  4028b5:	89 e8                	mov    %ebp,%eax
  4028b7:	89 d5                	mov    %edx,%ebp
  4028b9:	89 da                	mov    %ebx,%edx
  4028bb:	89 c3                	mov    %eax,%ebx
  4028bd:	eb 0b                	jmp    4028ca <.text+0x4a>
  4028bf:	90                   	nop
  4028c0:	89 d6                	mov    %edx,%esi
  4028c2:	2b 74 24 1c          	sub    0x1c(%esp),%esi
  4028c6:	85 f6                	test   %esi,%esi
  4028c8:	74 64                	je     40292e <.text+0xae>
  4028ca:	8d 7d 01             	lea    0x1(%ebp),%edi
  4028cd:	89 de                	mov    %ebx,%esi
  4028cf:	83 fb 5d             	cmp    $0x5d,%ebx
  4028d2:	0f 84 d0 00 00 00    	je     4029a8 <.text+0x128>
  4028d8:	83 fb 2d             	cmp    $0x2d,%ebx
  4028db:	0f 84 b7 00 00 00    	je     402998 <.text+0x118>
  4028e1:	85 db                	test   %ebx,%ebx
  4028e3:	0f 84 bf 00 00 00    	je     4029a8 <.text+0x128>
  4028e9:	83 fe 2f             	cmp    $0x2f,%esi
  4028ec:	0f 84 b6 00 00 00    	je     4029a8 <.text+0x128>
  4028f2:	83 fe 5c             	cmp    $0x5c,%esi
  4028f5:	0f 84 ad 00 00 00    	je     4029a8 <.text+0x128>
  4028fb:	0f be 1f             	movsbl (%edi),%ebx
  4028fe:	89 fd                	mov    %edi,%ebp
  402900:	89 f2                	mov    %esi,%edx
  402902:	8b 44 24 20          	mov    0x20(%esp),%eax
  402906:	85 c0                	test   %eax,%eax
  402908:	75 b6                	jne    4028c0 <.text+0x40>
  40290a:	89 14 24             	mov    %edx,(%esp)
  40290d:	89 54 24 24          	mov    %edx,0x24(%esp)
  402911:	e8 6e 1c 00 00       	call   404584 <_tolower>
  402916:	89 c6                	mov    %eax,%esi
  402918:	8b 44 24 1c          	mov    0x1c(%esp),%eax
  40291c:	89 04 24             	mov    %eax,(%esp)
  40291f:	e8 60 1c 00 00       	call   404584 <_tolower>
  402924:	8b 54 24 24          	mov    0x24(%esp),%edx
  402928:	29 c6                	sub    %eax,%esi
  40292a:	85 f6                	test   %esi,%esi
  40292c:	75 9c                	jne    4028ca <.text+0x4a>
  40292e:	89 d9                	mov    %ebx,%ecx
  402930:	8b 5c 24 28          	mov    0x28(%esp),%ebx
  402934:	89 ea                	mov    %ebp,%edx
  402936:	83 e3 20             	and    $0x20,%ebx
  402939:	8d 42 01             	lea    0x1(%edx),%eax
  40293c:	80 f9 5d             	cmp    $0x5d,%cl
  40293f:	74 69                	je     4029aa <.text+0x12a>
  402941:	80 f9 7f             	cmp    $0x7f,%cl
  402944:	74 17                	je     40295d <.text+0xdd>
  402946:	84 c9                	test   %cl,%cl
  402948:	74 5e                	je     4029a8 <.text+0x128>
  40294a:	0f b6 4a 01          	movzbl 0x1(%edx),%ecx
  40294e:	89 c2                	mov    %eax,%edx
  402950:	8d 42 01             	lea    0x1(%edx),%eax
  402953:	80 f9 5d             	cmp    $0x5d,%cl
  402956:	74 52                	je     4029aa <.text+0x12a>
  402958:	80 f9 7f             	cmp    $0x7f,%cl
  40295b:	75 e9                	jne    402946 <.text+0xc6>
  40295d:	0f b6 4a 01          	movzbl 0x1(%edx),%ecx
  402961:	85 db                	test   %ebx,%ebx
  402963:	0f 85 1f 02 00 00    	jne    402b88 <.text+0x308>
  402969:	8d 72 02             	lea    0x2(%edx),%esi
  40296c:	89 c2                	mov    %eax,%edx
  40296e:	89 f0                	mov    %esi,%eax
  402970:	eb d4                	jmp    402946 <.text+0xc6>
  402972:	8d b6 00 00 00 00    	lea    0x0(%esi),%esi
  402978:	0f b6 48 01          	movzbl 0x1(%eax),%ecx
  40297c:	8d 50 01             	lea    0x1(%eax),%edx
  40297f:	3b 6c 24 1c          	cmp    0x1c(%esp),%ebp
  402983:	0f 84 a7 01 00 00    	je     402b30 <.text+0x2b0>
  402989:	0f be e9             	movsbl %cl,%ebp
  40298c:	e9 17 ff ff ff       	jmp    4028a8 <.text+0x28>
  402991:	8d b4 26 00 00 00 00 	lea    0x0(%esi,%eiz,1),%esi
  402998:	0f be 5d 01          	movsbl 0x1(%ebp),%ebx
  40299c:	80 fb 5d             	cmp    $0x5d,%bl
  40299f:	74 17                	je     4029b8 <.text+0x138>
  4029a1:	0f be f3             	movsbl %bl,%esi
  4029a4:	85 f6                	test   %esi,%esi
  4029a6:	75 20                	jne    4029c8 <.text+0x148>
  4029a8:	31 c0                	xor    %eax,%eax
  4029aa:	83 c4 3c             	add    $0x3c,%esp
  4029ad:	5b                   	pop    %ebx
  4029ae:	5e                   	pop    %esi
  4029af:	5f                   	pop    %edi
  4029b0:	5d                   	pop    %ebp
  4029b1:	c3                   	ret    
  4029b2:	8d b6 00 00 00 00    	lea    0x0(%esi),%esi
  4029b8:	89 fd                	mov    %edi,%ebp
  4029ba:	ba 2d 00 00 00       	mov    $0x2d,%edx
  4029bf:	e9 3e ff ff ff       	jmp    402902 <.text+0x82>
  4029c4:	8d 74 26 00          	lea    0x0(%esi,%eiz,1),%esi
  4029c8:	8d 7d 02             	lea    0x2(%ebp),%edi
  4029cb:	89 6c 24 24          	mov    %ebp,0x24(%esp)
  4029cf:	89 d5                	mov    %edx,%ebp
  4029d1:	89 7c 24 2c          	mov    %edi,0x2c(%esp)
  4029d5:	89 f7                	mov    %esi,%edi
  4029d7:	8b 74 24 20          	mov    0x20(%esp),%esi
  4029db:	eb 10                	jmp    4029ed <.text+0x16d>
  4029dd:	8d 76 00             	lea    0x0(%esi),%esi
  4029e0:	89 eb                	mov    %ebp,%ebx
  4029e2:	2b 5c 24 1c          	sub    0x1c(%esp),%ebx
  4029e6:	83 c5 01             	add    $0x1,%ebp
  4029e9:	85 db                	test   %ebx,%ebx
  4029eb:	74 27                	je     402a14 <.text+0x194>
  4029ed:	39 fd                	cmp    %edi,%ebp
  4029ef:	7d 7f                	jge    402a70 <.text+0x1f0>
  4029f1:	85 f6                	test   %esi,%esi
  4029f3:	75 eb                	jne    4029e0 <.text+0x160>
  4029f5:	89 2c 24             	mov    %ebp,(%esp)
  4029f8:	83 c5 01             	add    $0x1,%ebp
  4029fb:	e8 84 1b 00 00       	call   404584 <_tolower>
  402a00:	89 c3                	mov    %eax,%ebx
  402a02:	8b 44 24 1c          	mov    0x1c(%esp),%eax
  402a06:	89 04 24             	mov    %eax,(%esp)
  402a09:	e8 76 1b 00 00       	call   404584 <_tolower>
  402a0e:	29 c3                	sub    %eax,%ebx
  402a10:	85 db                	test   %ebx,%ebx
  402a12:	75 d9                	jne    4029ed <.text+0x16d>
  402a14:	8b 54 24 24          	mov    0x24(%esp),%edx
  402a18:	8b 4c 24 28          	mov    0x28(%esp),%ecx
  402a1c:	8b 7c 24 2c          	mov    0x2c(%esp),%edi
  402a20:	0f b6 52 02          	movzbl 0x2(%edx),%edx
  402a24:	83 e1 20             	and    $0x20,%ecx
  402a27:	8d 47 01             	lea    0x1(%edi),%eax
  402a2a:	80 fa 5d             	cmp    $0x5d,%dl
  402a2d:	0f 84 77 ff ff ff    	je     4029aa <.text+0x12a>
  402a33:	80 fa 7f             	cmp    $0x7f,%dl
  402a36:	74 1f                	je     402a57 <.text+0x1d7>
  402a38:	84 d2                	test   %dl,%dl
  402a3a:	0f 84 68 ff ff ff    	je     4029a8 <.text+0x128>
  402a40:	0f b6 57 01          	movzbl 0x1(%edi),%edx
  402a44:	89 c7                	mov    %eax,%edi
  402a46:	8d 47 01             	lea    0x1(%edi),%eax
  402a49:	80 fa 5d             	cmp    $0x5d,%dl
  402a4c:	0f 84 58 ff ff ff    	je     4029aa <.text+0x12a>
  402a52:	80 fa 7f             	cmp    $0x7f,%dl
  402a55:	75 e1                	jne    402a38 <.text+0x1b8>
  402a57:	0f b6 57 01          	movzbl 0x1(%edi),%edx
  402a5b:	85 c9                	test   %ecx,%ecx
  402a5d:	0f 85 bd 00 00 00    	jne    402b20 <.text+0x2a0>
  402a63:	8d 5f 02             	lea    0x2(%edi),%ebx
  402a66:	89 c7                	mov    %eax,%edi
  402a68:	89 d8                	mov    %ebx,%eax
  402a6a:	eb cc                	jmp    402a38 <.text+0x1b8>
  402a6c:	8d 74 26 00          	lea    0x0(%esi,%eiz,1),%esi
  402a70:	89 fe                	mov    %edi,%esi
  402a72:	89 ea                	mov    %ebp,%edx
  402a74:	8b 7c 24 2c          	mov    0x2c(%esp),%edi
  402a78:	8b 6c 24 24          	mov    0x24(%esp),%ebp
  402a7c:	89 7c 24 24          	mov    %edi,0x24(%esp)
  402a80:	89 f7                	mov    %esi,%edi
  402a82:	89 d6                	mov    %edx,%esi
  402a84:	89 6c 24 2c          	mov    %ebp,0x2c(%esp)
  402a88:	8b 6c 24 20          	mov    0x20(%esp),%ebp
  402a8c:	eb 0f                	jmp    402a9d <.text+0x21d>
  402a8e:	66 90                	xchg   %ax,%ax
  402a90:	89 f3                	mov    %esi,%ebx
  402a92:	2b 5c 24 1c          	sub    0x1c(%esp),%ebx
  402a96:	83 ee 01             	sub    $0x1,%esi
  402a99:	85 db                	test   %ebx,%ebx
  402a9b:	74 2b                	je     402ac8 <.text+0x248>
  402a9d:	39 fe                	cmp    %edi,%esi
  402a9f:	0f 8e eb 00 00 00    	jle    402b90 <.text+0x310>
  402aa5:	85 ed                	test   %ebp,%ebp
  402aa7:	75 e7                	jne    402a90 <.text+0x210>
  402aa9:	89 34 24             	mov    %esi,(%esp)
  402aac:	83 ee 01             	sub    $0x1,%esi
  402aaf:	e8 d0 1a 00 00       	call   404584 <_tolower>
  402ab4:	89 c3                	mov    %eax,%ebx
  402ab6:	8b 44 24 1c          	mov    0x1c(%esp),%eax
  402aba:	89 04 24             	mov    %eax,(%esp)
  402abd:	e8 c2 1a 00 00       	call   404584 <_tolower>
  402ac2:	29 c3                	sub    %eax,%ebx
  402ac4:	85 db                	test   %ebx,%ebx
  402ac6:	75 d5                	jne    402a9d <.text+0x21d>
  402ac8:	8b 54 24 2c          	mov    0x2c(%esp),%edx
  402acc:	8b 4c 24 28          	mov    0x28(%esp),%ecx
  402ad0:	8b 7c 24 24          	mov    0x24(%esp),%edi
  402ad4:	0f b6 52 02          	movzbl 0x2(%edx),%edx
  402ad8:	83 e1 20             	and    $0x20,%ecx
  402adb:	8d 47 01             	lea    0x1(%edi),%eax
  402ade:	80 fa 5d             	cmp    $0x5d,%dl
  402ae1:	0f 84 c3 fe ff ff    	je     4029aa <.text+0x12a>
  402ae7:	80 fa 7f             	cmp    $0x7f,%dl
  402aea:	74 1f                	je     402b0b <.text+0x28b>
  402aec:	84 d2                	test   %dl,%dl
  402aee:	0f 84 b4 fe ff ff    	je     4029a8 <.text+0x128>
  402af4:	0f b6 57 01          	movzbl 0x1(%edi),%edx
  402af8:	89 c7                	mov    %eax,%edi
  402afa:	8d 47 01             	lea    0x1(%edi),%eax
  402afd:	80 fa 5d             	cmp    $0x5d,%dl
  402b00:	0f 84 a4 fe ff ff    	je     4029aa <.text+0x12a>
  402b06:	80 fa 7f             	cmp    $0x7f,%dl
  402b09:	75 e1                	jne    402aec <.text+0x26c>
  402b0b:	0f b6 57 01          	movzbl 0x1(%edi),%edx
  402b0f:	85 c9                	test   %ecx,%ecx
  402b11:	0f 85 89 00 00 00    	jne    402ba0 <.text+0x320>
  402b17:	8d 5f 02             	lea    0x2(%edi),%ebx
  402b1a:	89 c7                	mov    %eax,%edi
  402b1c:	89 d8                	mov    %ebx,%eax
  402b1e:	eb cc                	jmp    402aec <.text+0x26c>
  402b20:	89 c7                	mov    %eax,%edi
  402b22:	e9 00 ff ff ff       	jmp    402a27 <.text+0x1a7>
  402b27:	8d b4 26 00 00 00 00 	lea    0x0(%esi,%eiz,1),%esi
  402b2e:	66 90                	xchg   %ax,%ax
  402b30:	8b 5c 24 28          	mov    0x28(%esp),%ebx
  402b34:	83 e3 20             	and    $0x20,%ebx
  402b37:	8d 42 01             	lea    0x1(%edx),%eax
  402b3a:	80 f9 5d             	cmp    $0x5d,%cl
  402b3d:	0f 84 67 fe ff ff    	je     4029aa <.text+0x12a>
  402b43:	80 f9 7f             	cmp    $0x7f,%cl
  402b46:	74 1f                	je     402b67 <.text+0x2e7>
  402b48:	84 c9                	test   %cl,%cl
  402b4a:	0f 84 58 fe ff ff    	je     4029a8 <.text+0x128>
  402b50:	0f b6 4a 01          	movzbl 0x1(%edx),%ecx
  402b54:	89 c2                	mov    %eax,%edx
  402b56:	8d 42 01             	lea    0x1(%edx),%eax
  402b59:	80 f9 5d             	cmp    $0x5d,%cl
  402b5c:	0f 84 48 fe ff ff    	je     4029aa <.text+0x12a>
  402b62:	80 f9 7f             	cmp    $0x7f,%cl
  402b65:	75 e1                	jne    402b48 <.text+0x2c8>
  402b67:	0f b6 4a 01          	movzbl 0x1(%edx),%ecx
  402b6b:	85 db                	test   %ebx,%ebx
  402b6d:	75 11                	jne    402b80 <.text+0x300>
  402b6f:	8d 72 02             	lea    0x2(%edx),%esi
  402b72:	89 c2                	mov    %eax,%edx
  402b74:	89 f0                	mov    %esi,%eax
  402b76:	eb d0                	jmp    402b48 <.text+0x2c8>
  402b78:	8d b4 26 00 00 00 00 	lea    0x0(%esi,%eiz,1),%esi
  402b7f:	90                   	nop
  402b80:	89 c2                	mov    %eax,%edx
  402b82:	eb b3                	jmp    402b37 <.text+0x2b7>
  402b84:	8d 74 26 00          	lea    0x0(%esi,%eiz,1),%esi
  402b88:	89 c2                	mov    %eax,%edx
  402b8a:	e9 aa fd ff ff       	jmp    402939 <.text+0xb9>
  402b8f:	90                   	nop
  402b90:	89 fe                	mov    %edi,%esi
  402b92:	8b 7c 24 24          	mov    0x24(%esp),%edi
  402b96:	e9 4e fd ff ff       	jmp    4028e9 <.text+0x69>
  402b9b:	8d 74 26 00          	lea    0x0(%esi,%eiz,1),%esi
  402b9f:	90                   	nop
  402ba0:	89 c7                	mov    %eax,%edi
  402ba2:	e9 34 ff ff ff       	jmp    402adb <.text+0x25b>
  402ba7:	8d b4 26 00 00 00 00 	lea    0x0(%esi,%eiz,1),%esi
  402bae:	66 90                	xchg   %ax,%ax
  402bb0:	55                   	push   %ebp
  402bb1:	89 c5                	mov    %eax,%ebp
  402bb3:	57                   	push   %edi
  402bb4:	56                   	push   %esi
  402bb5:	89 d6                	mov    %edx,%esi
  402bb7:	53                   	push   %ebx
  402bb8:	83 ec 2c             	sub    $0x2c,%esp
  402bbb:	0f b6 3a             	movzbl (%edx),%edi
  402bbe:	0f be 10             	movsbl (%eax),%edx
  402bc1:	89 fb                	mov    %edi,%ebx
  402bc3:	89 d0                	mov    %edx,%eax
  402bc5:	80 fb 2e             	cmp    $0x2e,%bl
  402bc8:	0f 84 32 01 00 00    	je     402d00 <.text+0x480>
  402bce:	8d 5d 01             	lea    0x1(%ebp),%ebx
  402bd1:	85 d2                	test   %edx,%edx
  402bd3:	0f 84 f9 00 00 00    	je     402cd2 <.text+0x452>
  402bd9:	89 cf                	mov    %ecx,%edi
  402bdb:	83 e7 20             	and    $0x20,%edi
  402bde:	89 7c 24 14          	mov    %edi,0x14(%esp)
  402be2:	89 f7                	mov    %esi,%edi
  402be4:	3c 3f                	cmp    $0x3f,%al
  402be6:	0f 84 f4 00 00 00    	je     402ce0 <.text+0x460>
  402bec:	3c 5b                	cmp    $0x5b,%al
  402bee:	0f 84 9c 00 00 00    	je     402c90 <.text+0x410>
  402bf4:	3c 2a                	cmp    $0x2a,%al
  402bf6:	74 5b                	je     402c53 <.text+0x3d3>
  402bf8:	f6 c1 20             	test   $0x20,%cl
  402bfb:	75 09                	jne    402c06 <.text+0x386>
  402bfd:	83 fa 7f             	cmp    $0x7f,%edx
  402c00:	0f 84 42 01 00 00    	je     402d48 <.text+0x4c8>
  402c06:	0f be 06             	movsbl (%esi),%eax
  402c09:	84 c0                	test   %al,%al
  402c0b:	74 75                	je     402c82 <.text+0x402>
  402c0d:	89 44 24 10          	mov    %eax,0x10(%esp)
  402c11:	f6 c5 40             	test   $0x40,%ch
  402c14:	0f 85 d6 00 00 00    	jne    402cf0 <.text+0x470>
  402c1a:	89 14 24             	mov    %edx,(%esp)
  402c1d:	89 4c 24 1c          	mov    %ecx,0x1c(%esp)
  402c21:	89 54 24 18          	mov    %edx,0x18(%esp)
  402c25:	e8 5a 19 00 00       	call   404584 <_tolower>
  402c2a:	89 c5                	mov    %eax,%ebp
  402c2c:	8b 44 24 10          	mov    0x10(%esp),%eax
  402c30:	89 04 24             	mov    %eax,(%esp)
  402c33:	e8 4c 19 00 00       	call   404584 <_tolower>
  402c38:	8b 4c 24 1c          	mov    0x1c(%esp),%ecx
  402c3c:	8b 54 24 18          	mov    0x18(%esp),%edx
  402c40:	29 c5                	sub    %eax,%ebp
  402c42:	85 ed                	test   %ebp,%ebp
  402c44:	0f 84 9f 00 00 00    	je     402ce9 <.text+0x469>
  402c4a:	2b 54 24 10          	sub    0x10(%esp),%edx
  402c4e:	eb 32                	jmp    402c82 <.text+0x402>
  402c50:	83 c3 01             	add    $0x1,%ebx
  402c53:	0f b6 03             	movzbl (%ebx),%eax
  402c56:	3c 2a                	cmp    $0x2a,%al
  402c58:	74 f6                	je     402c50 <.text+0x3d0>
  402c5a:	31 d2                	xor    %edx,%edx
  402c5c:	84 c0                	test   %al,%al
  402c5e:	74 22                	je     402c82 <.text+0x402>
  402c60:	89 ce                	mov    %ecx,%esi
  402c62:	81 ce 00 00 01 00    	or     $0x10000,%esi
  402c68:	89 f1                	mov    %esi,%ecx
  402c6a:	89 fa                	mov    %edi,%edx
  402c6c:	89 d8                	mov    %ebx,%eax
  402c6e:	e8 3d ff ff ff       	call   402bb0 <.text+0x330>
  402c73:	85 c0                	test   %eax,%eax
  402c75:	74 09                	je     402c80 <.text+0x400>
  402c77:	83 c7 01             	add    $0x1,%edi
  402c7a:	80 7f ff 00          	cmpb   $0x0,-0x1(%edi)
  402c7e:	75 e8                	jne    402c68 <.text+0x3e8>
  402c80:	89 c2                	mov    %eax,%edx
  402c82:	83 c4 2c             	add    $0x2c,%esp
  402c85:	89 d0                	mov    %edx,%eax
  402c87:	5b                   	pop    %ebx
  402c88:	5e                   	pop    %esi
  402c89:	5f                   	pop    %edi
  402c8a:	5d                   	pop    %ebp
  402c8b:	c3                   	ret    
  402c8c:	8d 74 26 00          	lea    0x0(%esi,%eiz,1),%esi
  402c90:	0f be 16             	movsbl (%esi),%edx
  402c93:	85 d2                	test   %edx,%edx
  402c95:	0f 84 32 01 00 00    	je     402dcd <.text+0x54d>
  402c9b:	80 7d 01 21          	cmpb   $0x21,0x1(%ebp)
  402c9f:	74 7f                	je     402d20 <.text+0x4a0>
  402ca1:	89 d8                	mov    %ebx,%eax
  402ca3:	89 4c 24 10          	mov    %ecx,0x10(%esp)
  402ca7:	e8 d4 fb ff ff       	call   402880 <.text>
  402cac:	89 c5                	mov    %eax,%ebp
  402cae:	85 c0                	test   %eax,%eax
  402cb0:	0f 84 03 01 00 00    	je     402db9 <.text+0x539>
  402cb6:	0f b6 00             	movzbl (%eax),%eax
  402cb9:	8b 4c 24 10          	mov    0x10(%esp),%ecx
  402cbd:	0f be d0             	movsbl %al,%edx
  402cc0:	8d 5d 01             	lea    0x1(%ebp),%ebx
  402cc3:	83 c6 01             	add    $0x1,%esi
  402cc6:	85 d2                	test   %edx,%edx
  402cc8:	0f 85 14 ff ff ff    	jne    402be2 <.text+0x362>
  402cce:	0f b6 7f 01          	movzbl 0x1(%edi),%edi
  402cd2:	89 f8                	mov    %edi,%eax
  402cd4:	0f be d0             	movsbl %al,%edx
  402cd7:	f7 da                	neg    %edx
  402cd9:	eb a7                	jmp    402c82 <.text+0x402>
  402cdb:	8d 74 26 00          	lea    0x0(%esi,%eiz,1),%esi
  402cdf:	90                   	nop
  402ce0:	80 3e 00             	cmpb   $0x0,(%esi)
  402ce3:	0f 84 da 00 00 00    	je     402dc3 <.text+0x543>
  402ce9:	0f b6 03             	movzbl (%ebx),%eax
  402cec:	89 dd                	mov    %ebx,%ebp
  402cee:	eb cd                	jmp    402cbd <.text+0x43d>
  402cf0:	89 d5                	mov    %edx,%ebp
  402cf2:	29 c5                	sub    %eax,%ebp
  402cf4:	e9 49 ff ff ff       	jmp    402c42 <.text+0x3c2>
  402cf9:	8d b4 26 00 00 00 00 	lea    0x0(%esi,%eiz,1),%esi
  402d00:	80 fa 2e             	cmp    $0x2e,%dl
  402d03:	74 5b                	je     402d60 <.text+0x4e0>
  402d05:	f7 c1 00 00 01 00    	test   $0x10000,%ecx
  402d0b:	0f 85 bd fe ff ff    	jne    402bce <.text+0x34e>
  402d11:	83 ea 2e             	sub    $0x2e,%edx
  402d14:	e9 69 ff ff ff       	jmp    402c82 <.text+0x402>
  402d19:	8d b4 26 00 00 00 00 	lea    0x0(%esi,%eiz,1),%esi
  402d20:	8d 5d 02             	lea    0x2(%ebp),%ebx
  402d23:	89 4c 24 10          	mov    %ecx,0x10(%esp)
  402d27:	89 d8                	mov    %ebx,%eax
  402d29:	e8 52 fb ff ff       	call   402880 <.text>
  402d2e:	8b 4c 24 10          	mov    0x10(%esp),%ecx
  402d32:	89 c2                	mov    %eax,%edx
  402d34:	0f b6 45 02          	movzbl 0x2(%ebp),%eax
  402d38:	85 d2                	test   %edx,%edx
  402d3a:	74 2c                	je     402d68 <.text+0x4e8>
  402d3c:	89 dd                	mov    %ebx,%ebp
  402d3e:	e9 7a ff ff ff       	jmp    402cbd <.text+0x43d>
  402d43:	8d 74 26 00          	lea    0x0(%esi,%eiz,1),%esi
  402d47:	90                   	nop
  402d48:	0f be 55 01          	movsbl 0x1(%ebp),%edx
  402d4c:	85 d2                	test   %edx,%edx
  402d4e:	0f 84 b2 fe ff ff    	je     402c06 <.text+0x386>
  402d54:	8d 5d 02             	lea    0x2(%ebp),%ebx
  402d57:	e9 aa fe ff ff       	jmp    402c06 <.text+0x386>
  402d5c:	8d 74 26 00          	lea    0x0(%esi,%eiz,1),%esi
  402d60:	8d 5d 01             	lea    0x1(%ebp),%ebx
  402d63:	e9 71 fe ff ff       	jmp    402bd9 <.text+0x359>
  402d68:	3c 5d                	cmp    $0x5d,%al
  402d6a:	75 0c                	jne    402d78 <.text+0x4f8>
  402d6c:	0f b6 45 03          	movzbl 0x3(%ebp),%eax
  402d70:	8d 5d 03             	lea    0x3(%ebp),%ebx
  402d73:	8d 74 26 00          	lea    0x0(%esi,%eiz,1),%esi
  402d77:	90                   	nop
  402d78:	8d 6b 01             	lea    0x1(%ebx),%ebp
  402d7b:	3c 5d                	cmp    $0x5d,%al
  402d7d:	74 15                	je     402d94 <.text+0x514>
  402d7f:	3c 7f                	cmp    $0x7f,%al
  402d81:	74 1d                	je     402da0 <.text+0x520>
  402d83:	84 c0                	test   %al,%al
  402d85:	74 32                	je     402db9 <.text+0x539>
  402d87:	0f b6 43 01          	movzbl 0x1(%ebx),%eax
  402d8b:	89 eb                	mov    %ebp,%ebx
  402d8d:	8d 6b 01             	lea    0x1(%ebx),%ebp
  402d90:	3c 5d                	cmp    $0x5d,%al
  402d92:	75 eb                	jne    402d7f <.text+0x4ff>
  402d94:	0f b6 43 01          	movzbl 0x1(%ebx),%eax
  402d98:	e9 20 ff ff ff       	jmp    402cbd <.text+0x43d>
  402d9d:	8d 76 00             	lea    0x0(%esi),%esi
  402da0:	8b 54 24 14          	mov    0x14(%esp),%edx
  402da4:	0f b6 43 01          	movzbl 0x1(%ebx),%eax
  402da8:	85 d2                	test   %edx,%edx
  402daa:	75 09                	jne    402db5 <.text+0x535>
  402dac:	8d 53 02             	lea    0x2(%ebx),%edx
  402daf:	89 eb                	mov    %ebp,%ebx
  402db1:	89 d5                	mov    %edx,%ebp
  402db3:	eb ce                	jmp    402d83 <.text+0x503>
  402db5:	89 eb                	mov    %ebp,%ebx
  402db7:	eb bf                	jmp    402d78 <.text+0x4f8>
  402db9:	ba 5d 00 00 00       	mov    $0x5d,%edx
  402dbe:	e9 bf fe ff ff       	jmp    402c82 <.text+0x402>
  402dc3:	ba 3f 00 00 00       	mov    $0x3f,%edx
  402dc8:	e9 b5 fe ff ff       	jmp    402c82 <.text+0x402>
  402dcd:	ba 5b 00 00 00       	mov    $0x5b,%edx
  402dd2:	e9 ab fe ff ff       	jmp    402c82 <.text+0x402>
  402dd7:	8d b4 26 00 00 00 00 	lea    0x0(%esi,%eiz,1),%esi
  402dde:	66 90                	xchg   %ax,%ax
  402de0:	57                   	push   %edi
  402de1:	8d 48 01             	lea    0x1(%eax),%ecx
  402de4:	56                   	push   %esi
  402de5:	53                   	push   %ebx
  402de6:	89 c3                	mov    %eax,%ebx
  402de8:	0f be 00             	movsbl (%eax),%eax
  402deb:	85 c0                	test   %eax,%eax
  402ded:	74 61                	je     402e50 <.text+0x5d0>
  402def:	c1 ea 05             	shr    $0x5,%edx
  402df2:	31 ff                	xor    %edi,%edi
  402df4:	89 d6                	mov    %edx,%esi
  402df6:	83 f6 01             	xor    $0x1,%esi
  402df9:	83 e6 01             	and    $0x1,%esi
  402dfc:	eb 23                	jmp    402e21 <.text+0x5a1>
  402dfe:	66 90                	xchg   %ax,%ax
  402e00:	83 f8 2a             	cmp    $0x2a,%eax
  402e03:	74 6b                	je     402e70 <.text+0x5f0>
  402e05:	83 f8 3f             	cmp    $0x3f,%eax
  402e08:	74 66                	je     402e70 <.text+0x5f0>
  402e0a:	83 f8 5b             	cmp    $0x5b,%eax
  402e0d:	89 cb                	mov    %ecx,%ebx
  402e0f:	0f 94 c0             	sete   %al
  402e12:	0f b6 c0             	movzbl %al,%eax
  402e15:	89 c7                	mov    %eax,%edi
  402e17:	0f be 03             	movsbl (%ebx),%eax
  402e1a:	83 c1 01             	add    $0x1,%ecx
  402e1d:	85 c0                	test   %eax,%eax
  402e1f:	74 2f                	je     402e50 <.text+0x5d0>
  402e21:	83 f8 7f             	cmp    $0x7f,%eax
  402e24:	75 06                	jne    402e2c <.text+0x5ac>
  402e26:	89 f2                	mov    %esi,%edx
  402e28:	84 d2                	test   %dl,%dl
  402e2a:	75 2c                	jne    402e58 <.text+0x5d8>
  402e2c:	85 ff                	test   %edi,%edi
  402e2e:	74 d0                	je     402e00 <.text+0x580>
  402e30:	83 ff 01             	cmp    $0x1,%edi
  402e33:	7e 05                	jle    402e3a <.text+0x5ba>
  402e35:	83 f8 5d             	cmp    $0x5d,%eax
  402e38:	74 36                	je     402e70 <.text+0x5f0>
  402e3a:	89 cb                	mov    %ecx,%ebx
  402e3c:	83 f8 21             	cmp    $0x21,%eax
  402e3f:	74 d6                	je     402e17 <.text+0x597>
  402e41:	89 cb                	mov    %ecx,%ebx
  402e43:	83 c7 01             	add    $0x1,%edi
  402e46:	83 c1 01             	add    $0x1,%ecx
  402e49:	0f be 03             	movsbl (%ebx),%eax
  402e4c:	85 c0                	test   %eax,%eax
  402e4e:	75 d1                	jne    402e21 <.text+0x5a1>
  402e50:	5b                   	pop    %ebx
  402e51:	5e                   	pop    %esi
  402e52:	5f                   	pop    %edi
  402e53:	c3                   	ret    
  402e54:	8d 74 26 00          	lea    0x0(%esi,%eiz,1),%esi
  402e58:	80 7b 01 00          	cmpb   $0x0,0x1(%ebx)
  402e5c:	8d 4b 02             	lea    0x2(%ebx),%ecx
  402e5f:	74 18                	je     402e79 <.text+0x5f9>
  402e61:	85 ff                	test   %edi,%edi
  402e63:	74 a5                	je     402e0a <.text+0x58a>
  402e65:	eb da                	jmp    402e41 <.text+0x5c1>
  402e67:	8d b4 26 00 00 00 00 	lea    0x0(%esi,%eiz,1),%esi
  402e6e:	66 90                	xchg   %ax,%ax
  402e70:	5b                   	pop    %ebx
  402e71:	b8 01 00 00 00       	mov    $0x1,%eax
  402e76:	5e                   	pop    %esi
  402e77:	5f                   	pop    %edi
  402e78:	c3                   	ret    
  402e79:	31 c0                	xor    %eax,%eax
  402e7b:	eb d3                	jmp    402e50 <.text+0x5d0>
  402e7d:	8d 76 00             	lea    0x0(%esi),%esi
  402e80:	57                   	push   %edi
  402e81:	56                   	push   %esi
  402e82:	89 c6                	mov    %eax,%esi
  402e84:	53                   	push   %ebx
  402e85:	89 d3                	mov    %edx,%ebx
  402e87:	83 ec 10             	sub    $0x10,%esp
  402e8a:	8b 42 0c             	mov    0xc(%edx),%eax
  402e8d:	03 42 04             	add    0x4(%edx),%eax
  402e90:	8d 04 85 08 00 00 00 	lea    0x8(,%eax,4),%eax
  402e97:	89 44 24 04          	mov    %eax,0x4(%esp)
  402e9b:	8b 42 08             	mov    0x8(%edx),%eax
  402e9e:	89 04 24             	mov    %eax,(%esp)
  402ea1:	e8 1a 15 00 00       	call   4043c0 <___mingw_realloc>
  402ea6:	85 c0                	test   %eax,%eax
  402ea8:	74 26                	je     402ed0 <.text+0x650>
  402eaa:	8b 4b 04             	mov    0x4(%ebx),%ecx
  402ead:	8b 53 0c             	mov    0xc(%ebx),%edx
  402eb0:	89 43 08             	mov    %eax,0x8(%ebx)
  402eb3:	8d 79 01             	lea    0x1(%ecx),%edi
  402eb6:	01 d1                	add    %edx,%ecx
  402eb8:	01 fa                	add    %edi,%edx
  402eba:	89 7b 04             	mov    %edi,0x4(%ebx)
  402ebd:	89 34 88             	mov    %esi,(%eax,%ecx,4)
  402ec0:	c7 04 90 00 00 00 00 	movl   $0x0,(%eax,%edx,4)
  402ec7:	83 c4 10             	add    $0x10,%esp
  402eca:	31 c0                	xor    %eax,%eax
  402ecc:	5b                   	pop    %ebx
  402ecd:	5e                   	pop    %esi
  402ece:	5f                   	pop    %edi
  402ecf:	c3                   	ret    
  402ed0:	83 c4 10             	add    $0x10,%esp
  402ed3:	b8 01 00 00 00       	mov    $0x1,%eax
  402ed8:	5b                   	pop    %ebx
  402ed9:	5e                   	pop    %esi
  402eda:	5f                   	pop    %edi
  402edb:	c3                   	ret    
  402edc:	8d 74 26 00          	lea    0x0(%esi,%eiz,1),%esi
  402ee0:	56                   	push   %esi
  402ee1:	89 d6                	mov    %edx,%esi
  402ee3:	53                   	push   %ebx
  402ee4:	89 c3                	mov    %eax,%ebx
  402ee6:	83 ec 14             	sub    $0x14,%esp
  402ee9:	8b 00                	mov    (%eax),%eax
  402eeb:	85 c0                	test   %eax,%eax
  402eed:	74 05                	je     402ef4 <.text+0x674>
  402eef:	e8 ec ff ff ff       	call   402ee0 <.text+0x660>
  402ef4:	8b 43 08             	mov    0x8(%ebx),%eax
  402ef7:	85 c0                	test   %eax,%eax
  402ef9:	74 04                	je     402eff <.text+0x67f>
  402efb:	85 f6                	test   %esi,%esi
  402efd:	75 21                	jne    402f20 <.text+0x6a0>
  402eff:	8b 43 04             	mov    0x4(%ebx),%eax
  402f02:	85 c0                	test   %eax,%eax
  402f04:	74 07                	je     402f0d <.text+0x68d>
  402f06:	89 f2                	mov    %esi,%edx
  402f08:	e8 d3 ff ff ff       	call   402ee0 <.text+0x660>
  402f0d:	89 1c 24             	mov    %ebx,(%esp)
  402f10:	e8 3b f9 ff ff       	call   402850 <___mingw_aligned_free>
  402f15:	83 c4 14             	add    $0x14,%esp
  402f18:	5b                   	pop    %ebx
  402f19:	5e                   	pop    %esi
  402f1a:	c3                   	ret    
  402f1b:	8d 74 26 00          	lea    0x0(%esi,%eiz,1),%esi
  402f1f:	90                   	nop
  402f20:	89 f2                	mov    %esi,%edx
  402f22:	e8 59 ff ff ff       	call   402e80 <.text+0x600>
  402f27:	eb d6                	jmp    402eff <.text+0x67f>
  402f29:	8d b4 26 00 00 00 00 	lea    0x0(%esi,%eiz,1),%esi
  402f30:	56                   	push   %esi
  402f31:	89 c6                	mov    %eax,%esi
  402f33:	53                   	push   %ebx
  402f34:	83 ec 14             	sub    $0x14,%esp
  402f37:	8b 40 0c             	mov    0xc(%eax),%eax
  402f3a:	8d 58 01             	lea    0x1(%eax),%ebx
  402f3d:	8d 04 9d 00 00 00 00 	lea    0x0(,%ebx,4),%eax
  402f44:	89 04 24             	mov    %eax,(%esp)
  402f47:	e8 80 16 00 00       	call   4045cc <_malloc>
  402f4c:	89 46 08             	mov    %eax,0x8(%esi)
  402f4f:	85 c0                	test   %eax,%eax
  402f51:	74 21                	je     402f74 <.text+0x6f4>
  402f53:	c7 46 04 00 00 00 00 	movl   $0x0,0x4(%esi)
  402f5a:	85 db                	test   %ebx,%ebx
  402f5c:	7e 0e                	jle    402f6c <.text+0x6ec>
  402f5e:	66 90                	xchg   %ax,%ax
  402f60:	83 eb 01             	sub    $0x1,%ebx
  402f63:	c7 04 98 00 00 00 00 	movl   $0x0,(%eax,%ebx,4)
  402f6a:	75 f4                	jne    402f60 <.text+0x6e0>
  402f6c:	31 c0                	xor    %eax,%eax
  402f6e:	83 c4 14             	add    $0x14,%esp
  402f71:	5b                   	pop    %ebx
  402f72:	5e                   	pop    %esi
  402f73:	c3                   	ret    
  402f74:	b8 03 00 00 00       	mov    $0x3,%eax
  402f79:	eb f3                	jmp    402f6e <.text+0x6ee>
  402f7b:	8d 74 26 00          	lea    0x0(%esi,%eiz,1),%esi
  402f7f:	90                   	nop
  402f80:	55                   	push   %ebp
  402f81:	89 e5                	mov    %esp,%ebp
  402f83:	57                   	push   %edi
  402f84:	56                   	push   %esi
  402f85:	53                   	push   %ebx
  402f86:	83 ec 6c             	sub    $0x6c,%esp
  402f89:	89 45 c4             	mov    %eax,-0x3c(%ebp)
  402f8c:	89 55 d0             	mov    %edx,-0x30(%ebp)
  402f8f:	89 4d c8             	mov    %ecx,-0x38(%ebp)
  402f92:	80 e6 04             	and    $0x4,%dh
  402f95:	0f 85 3d 01 00 00    	jne    4030d8 <.text+0x858>
  402f9b:	8b 7d c4             	mov    -0x3c(%ebp),%edi
  402f9e:	89 65 bc             	mov    %esp,-0x44(%ebp)
  402fa1:	89 3c 24             	mov    %edi,(%esp)
  402fa4:	e8 e3 15 00 00       	call   40458c <_strlen>
  402fa9:	8d 50 01             	lea    0x1(%eax),%edx
  402fac:	83 c0 10             	add    $0x10,%eax
  402faf:	c1 e8 04             	shr    $0x4,%eax
  402fb2:	c1 e0 04             	shl    $0x4,%eax
  402fb5:	e8 7e 15 00 00       	call   404538 <___chkstk_ms>
  402fba:	29 c4                	sub    %eax,%esp
  402fbc:	8d 44 24 0c          	lea    0xc(%esp),%eax
  402fc0:	89 54 24 08          	mov    %edx,0x8(%esp)
  402fc4:	89 7c 24 04          	mov    %edi,0x4(%esp)
  402fc8:	89 04 24             	mov    %eax,(%esp)
  402fcb:	e8 ec 15 00 00       	call   4045bc <_memcpy>
  402fd0:	89 04 24             	mov    %eax,(%esp)
  402fd3:	e8 a8 09 00 00       	call   403980 <___mingw_dirname>
  402fd8:	c7 45 e4 00 00 00 00 	movl   $0x0,-0x1c(%ebp)
  402fdf:	89 45 c0             	mov    %eax,-0x40(%ebp)
  402fe2:	89 c7                	mov    %eax,%edi
  402fe4:	8d 45 d8             	lea    -0x28(%ebp),%eax
  402fe7:	e8 44 ff ff ff       	call   402f30 <.text+0x6b0>
  402fec:	89 45 d4             	mov    %eax,-0x2c(%ebp)
  402fef:	85 c0                	test   %eax,%eax
  402ff1:	0f 85 81 03 00 00    	jne    403378 <.text+0xaf8>
  402ff7:	85 ff                	test   %edi,%edi
  402ff9:	74 12                	je     40300d <.text+0x78d>
  402ffb:	8b 55 d0             	mov    -0x30(%ebp),%edx
  402ffe:	89 f8                	mov    %edi,%eax
  403000:	e8 db fd ff ff       	call   402de0 <.text+0x560>
  403005:	85 c0                	test   %eax,%eax
  403007:	0f 85 f9 05 00 00    	jne    403606 <.text+0xd86>
  40300d:	8b 75 c0             	mov    -0x40(%ebp),%esi
  403010:	89 e3                	mov    %esp,%ebx
  403012:	89 34 24             	mov    %esi,(%esp)
  403015:	e8 72 15 00 00       	call   40458c <_strlen>
  40301a:	83 c0 10             	add    $0x10,%eax
  40301d:	c1 e8 04             	shr    $0x4,%eax
  403020:	c1 e0 04             	shl    $0x4,%eax
  403023:	e8 10 15 00 00       	call   404538 <___chkstk_ms>
  403028:	29 c4                	sub    %eax,%esp
  40302a:	89 f2                	mov    %esi,%edx
  40302c:	8d 7c 24 0c          	lea    0xc(%esp),%edi
  403030:	89 f9                	mov    %edi,%ecx
  403032:	eb 10                	jmp    403044 <.text+0x7c4>
  403034:	8d 74 26 00          	lea    0x0(%esi,%eiz,1),%esi
  403038:	83 c1 01             	add    $0x1,%ecx
  40303b:	89 f2                	mov    %esi,%edx
  40303d:	88 41 ff             	mov    %al,-0x1(%ecx)
  403040:	84 c0                	test   %al,%al
  403042:	74 1b                	je     40305f <.text+0x7df>
  403044:	0f b6 02             	movzbl (%edx),%eax
  403047:	8d 72 01             	lea    0x1(%edx),%esi
  40304a:	3c 7f                	cmp    $0x7f,%al
  40304c:	75 ea                	jne    403038 <.text+0x7b8>
  40304e:	0f b6 42 01          	movzbl 0x1(%edx),%eax
  403052:	83 c1 01             	add    $0x1,%ecx
  403055:	83 c2 02             	add    $0x2,%edx
  403058:	88 41 ff             	mov    %al,-0x1(%ecx)
  40305b:	84 c0                	test   %al,%al
  40305d:	75 e5                	jne    403044 <.text+0x7c4>
  40305f:	89 3c 24             	mov    %edi,(%esp)
  403062:	e8 05 15 00 00       	call   40456c <_strdup>
  403067:	c7 45 d4 01 00 00 00 	movl   $0x1,-0x2c(%ebp)
  40306e:	89 dc                	mov    %ebx,%esp
  403070:	85 c0                	test   %eax,%eax
  403072:	0f 84 00 03 00 00    	je     403378 <.text+0xaf8>
  403078:	8d 55 d8             	lea    -0x28(%ebp),%edx
  40307b:	e8 00 fe ff ff       	call   402e80 <.text+0x600>
  403080:	89 45 d4             	mov    %eax,-0x2c(%ebp)
  403083:	8b 4d d4             	mov    -0x2c(%ebp),%ecx
  403086:	85 c9                	test   %ecx,%ecx
  403088:	0f 85 ea 02 00 00    	jne    403378 <.text+0xaf8>
  40308e:	8b 5d c4             	mov    -0x3c(%ebp),%ebx
  403091:	0f b6 43 01          	movzbl 0x1(%ebx),%eax
  403095:	3c 2f                	cmp    $0x2f,%al
  403097:	0f 84 33 03 00 00    	je     4033d0 <.text+0xb50>
  40309d:	3c 5c                	cmp    $0x5c,%al
  40309f:	0f 84 2b 03 00 00    	je     4033d0 <.text+0xb50>
  4030a5:	8b 45 c0             	mov    -0x40(%ebp),%eax
  4030a8:	80 38 2e             	cmpb   $0x2e,(%eax)
  4030ab:	0f 85 1f 03 00 00    	jne    4033d0 <.text+0xb50>
  4030b1:	80 78 01 00          	cmpb   $0x0,0x1(%eax)
  4030b5:	0f 85 15 03 00 00    	jne    4033d0 <.text+0xb50>
  4030bb:	f6 45 d0 10          	testb  $0x10,-0x30(%ebp)
  4030bf:	0f 85 af 06 00 00    	jne    403774 <.text+0xef4>
  4030c5:	c6 45 9f 5c          	movb   $0x5c,-0x61(%ebp)
  4030c9:	c7 45 c0 00 00 00 00 	movl   $0x0,-0x40(%ebp)
  4030d0:	e9 4e 03 00 00       	jmp    403423 <.text+0xba3>
  4030d5:	8d 76 00             	lea    0x0(%esi),%esi
  4030d8:	89 65 b8             	mov    %esp,-0x48(%ebp)
  4030db:	89 c6                	mov    %eax,%esi
  4030dd:	89 04 24             	mov    %eax,(%esp)
  4030e0:	e8 a7 14 00 00       	call   40458c <_strlen>
  4030e5:	83 c0 10             	add    $0x10,%eax
  4030e8:	c1 e8 04             	shr    $0x4,%eax
  4030eb:	c1 e0 04             	shl    $0x4,%eax
  4030ee:	e8 45 14 00 00       	call   404538 <___chkstk_ms>
  4030f3:	0f b6 1e             	movzbl (%esi),%ebx
  4030f6:	29 c4                	sub    %eax,%esp
  4030f8:	8d 7c 24 0c          	lea    0xc(%esp),%edi
  4030fc:	89 7d bc             	mov    %edi,-0x44(%ebp)
  4030ff:	8d 4e 01             	lea    0x1(%esi),%ecx
  403102:	80 fb 7f             	cmp    $0x7f,%bl
  403105:	74 22                	je     403129 <.text+0x8a9>
  403107:	80 fb 7b             	cmp    $0x7b,%bl
  40310a:	74 44                	je     403150 <.text+0x8d0>
  40310c:	88 1f                	mov    %bl,(%edi)
  40310e:	8d 47 01             	lea    0x1(%edi),%eax
  403111:	84 db                	test   %bl,%bl
  403113:	0f 84 99 02 00 00    	je     4033b2 <.text+0xb32>
  403119:	0f b6 5e 01          	movzbl 0x1(%esi),%ebx
  40311d:	89 ce                	mov    %ecx,%esi
  40311f:	89 c7                	mov    %eax,%edi
  403121:	8d 4e 01             	lea    0x1(%esi),%ecx
  403124:	80 fb 7f             	cmp    $0x7f,%bl
  403127:	75 de                	jne    403107 <.text+0x887>
  403129:	0f b6 5e 01          	movzbl 0x1(%esi),%ebx
  40312d:	c6 07 7f             	movb   $0x7f,(%edi)
  403130:	84 db                	test   %bl,%bl
  403132:	75 0c                	jne    403140 <.text+0x8c0>
  403134:	8d 46 02             	lea    0x2(%esi),%eax
  403137:	83 c7 01             	add    $0x1,%edi
  40313a:	89 ce                	mov    %ecx,%esi
  40313c:	89 c1                	mov    %eax,%ecx
  40313e:	eb cc                	jmp    40310c <.text+0x88c>
  403140:	88 5f 01             	mov    %bl,0x1(%edi)
  403143:	83 c6 02             	add    $0x2,%esi
  403146:	0f b6 1e             	movzbl (%esi),%ebx
  403149:	83 c7 02             	add    $0x2,%edi
  40314c:	eb b1                	jmp    4030ff <.text+0x87f>
  40314e:	66 90                	xchg   %ax,%ax
  403150:	0f b6 5e 01          	movzbl 0x1(%esi),%ebx
  403154:	89 f2                	mov    %esi,%edx
  403156:	89 75 c0             	mov    %esi,-0x40(%ebp)
  403159:	89 4d d4             	mov    %ecx,-0x2c(%ebp)
  40315c:	8d 72 01             	lea    0x1(%edx),%esi
  40315f:	b9 01 00 00 00       	mov    $0x1,%ecx
  403164:	89 d8                	mov    %ebx,%eax
  403166:	c7 45 cc 2c 00 00 00 	movl   $0x2c,-0x34(%ebp)
  40316d:	3c 7b                	cmp    $0x7b,%al
  40316f:	74 2b                	je     40319c <.text+0x91c>
  403171:	8d b4 26 00 00 00 00 	lea    0x0(%esi,%eiz,1),%esi
  403178:	7f 36                	jg     4031b0 <.text+0x930>
  40317a:	84 c0                	test   %al,%al
  40317c:	0f 84 1e 01 00 00    	je     4032a0 <.text+0xa20>
  403182:	3c 2c                	cmp    $0x2c,%al
  403184:	75 09                	jne    40318f <.text+0x90f>
  403186:	83 f9 01             	cmp    $0x1,%ecx
  403189:	0f 84 11 02 00 00    	je     4033a0 <.text+0xb20>
  40318f:	0f b6 42 02          	movzbl 0x2(%edx),%eax
  403193:	89 f2                	mov    %esi,%edx
  403195:	8d 72 01             	lea    0x1(%edx),%esi
  403198:	3c 7b                	cmp    $0x7b,%al
  40319a:	75 dc                	jne    403178 <.text+0x8f8>
  40319c:	0f b6 42 02          	movzbl 0x2(%edx),%eax
  4031a0:	83 c1 01             	add    $0x1,%ecx
  4031a3:	89 f2                	mov    %esi,%edx
  4031a5:	eb ee                	jmp    403195 <.text+0x915>
  4031a7:	8d b4 26 00 00 00 00 	lea    0x0(%esi,%eiz,1),%esi
  4031ae:	66 90                	xchg   %ax,%ax
  4031b0:	3c 7d                	cmp    $0x7d,%al
  4031b2:	0f 85 18 01 00 00    	jne    4032d0 <.text+0xa50>
  4031b8:	83 e9 01             	sub    $0x1,%ecx
  4031bb:	75 d2                	jne    40318f <.text+0x90f>
  4031bd:	83 7d cc 7b          	cmpl   $0x7b,-0x34(%ebp)
  4031c1:	8b 75 c0             	mov    -0x40(%ebp),%esi
  4031c4:	8b 4d d4             	mov    -0x2c(%ebp),%ecx
  4031c7:	0f 85 d6 00 00 00    	jne    4032a3 <.text+0xa23>
  4031cd:	89 7d d4             	mov    %edi,-0x2c(%ebp)
  4031d0:	8b 7d d0             	mov    -0x30(%ebp),%edi
  4031d3:	8b 45 d4             	mov    -0x2c(%ebp),%eax
  4031d6:	ba 01 00 00 00       	mov    $0x1,%edx
  4031db:	80 fb 7f             	cmp    $0x7f,%bl
  4031de:	0f 84 98 00 00 00    	je     40327c <.text+0x9fc>
  4031e4:	8d 74 26 00          	lea    0x0(%esi,%eiz,1),%esi
  4031e8:	83 c6 01             	add    $0x1,%esi
  4031eb:	89 c1                	mov    %eax,%ecx
  4031ed:	80 fb 7d             	cmp    $0x7d,%bl
  4031f0:	74 6e                	je     403260 <.text+0x9e0>
  4031f2:	80 fb 2c             	cmp    $0x2c,%bl
  4031f5:	0f 85 b5 00 00 00    	jne    4032b0 <.text+0xa30>
  4031fb:	83 fa 01             	cmp    $0x1,%edx
  4031fe:	0f 85 ac 00 00 00    	jne    4032b0 <.text+0xa30>
  403204:	89 f2                	mov    %esi,%edx
  403206:	bb 01 00 00 00       	mov    $0x1,%ebx
  40320b:	8d 74 26 00          	lea    0x0(%esi,%eiz,1),%esi
  40320f:	90                   	nop
  403210:	8d 42 01             	lea    0x1(%edx),%eax
  403213:	0f b6 52 01          	movzbl 0x1(%edx),%edx
  403217:	80 fa 7f             	cmp    $0x7f,%dl
  40321a:	74 1c                	je     403238 <.text+0x9b8>
  40321c:	e9 ef 00 00 00       	jmp    403310 <.text+0xa90>
  403221:	8d b4 26 00 00 00 00 	lea    0x0(%esi,%eiz,1),%esi
  403228:	0f b6 50 02          	movzbl 0x2(%eax),%edx
  40322c:	83 c0 02             	add    $0x2,%eax
  40322f:	80 fa 7f             	cmp    $0x7f,%dl
  403232:	0f 85 d8 00 00 00    	jne    403310 <.text+0xa90>
  403238:	80 78 01 00          	cmpb   $0x0,0x1(%eax)
  40323c:	75 ea                	jne    403228 <.text+0x9a8>
  40323e:	c6 01 00             	movb   $0x0,(%ecx)
  403241:	c7 45 d4 01 00 00 00 	movl   $0x1,-0x2c(%ebp)
  403248:	8b 65 b8             	mov    -0x48(%ebp),%esp
  40324b:	8b 45 d4             	mov    -0x2c(%ebp),%eax
  40324e:	8d 65 f4             	lea    -0xc(%ebp),%esp
  403251:	5b                   	pop    %ebx
  403252:	5e                   	pop    %esi
  403253:	5f                   	pop    %edi
  403254:	5d                   	pop    %ebp
  403255:	c3                   	ret    
  403256:	8d b4 26 00 00 00 00 	lea    0x0(%esi,%eiz,1),%esi
  40325d:	8d 76 00             	lea    0x0(%esi),%esi
  403260:	83 ea 01             	sub    $0x1,%edx
  403263:	0f 84 c7 00 00 00    	je     403330 <.text+0xab0>
  403269:	c6 01 7d             	movb   $0x7d,(%ecx)
  40326c:	8d 41 01             	lea    0x1(%ecx),%eax
  40326f:	0f b6 5e 01          	movzbl 0x1(%esi),%ebx
  403273:	80 fb 7f             	cmp    $0x7f,%bl
  403276:	0f 85 6c ff ff ff    	jne    4031e8 <.text+0x968>
  40327c:	0f b6 5e 02          	movzbl 0x2(%esi),%ebx
  403280:	c6 00 7f             	movb   $0x7f,(%eax)
  403283:	8d 48 02             	lea    0x2(%eax),%ecx
  403286:	88 58 01             	mov    %bl,0x1(%eax)
  403289:	84 db                	test   %bl,%bl
  40328b:	74 6b                	je     4032f8 <.text+0xa78>
  40328d:	0f b6 5e 03          	movzbl 0x3(%esi),%ebx
  403291:	83 c6 03             	add    $0x3,%esi
  403294:	e9 54 ff ff ff       	jmp    4031ed <.text+0x96d>
  403299:	8d b4 26 00 00 00 00 	lea    0x0(%esi,%eiz,1),%esi
  4032a0:	8b 4d d4             	mov    -0x2c(%ebp),%ecx
  4032a3:	c6 07 7b             	movb   $0x7b,(%edi)
  4032a6:	89 ce                	mov    %ecx,%esi
  4032a8:	83 c7 01             	add    $0x1,%edi
  4032ab:	e9 4f fe ff ff       	jmp    4030ff <.text+0x87f>
  4032b0:	8d 41 01             	lea    0x1(%ecx),%eax
  4032b3:	80 fb 7b             	cmp    $0x7b,%bl
  4032b6:	75 08                	jne    4032c0 <.text+0xa40>
  4032b8:	c6 01 7b             	movb   $0x7b,(%ecx)
  4032bb:	83 c2 01             	add    $0x1,%edx
  4032be:	eb af                	jmp    40326f <.text+0x9ef>
  4032c0:	88 19                	mov    %bl,(%ecx)
  4032c2:	84 db                	test   %bl,%bl
  4032c4:	75 a9                	jne    40326f <.text+0x9ef>
  4032c6:	eb 34                	jmp    4032fc <.text+0xa7c>
  4032c8:	8d b4 26 00 00 00 00 	lea    0x0(%esi,%eiz,1),%esi
  4032cf:	90                   	nop
  4032d0:	3c 7f                	cmp    $0x7f,%al
  4032d2:	0f 85 b7 fe ff ff    	jne    40318f <.text+0x90f>
  4032d8:	0f b6 42 02          	movzbl 0x2(%edx),%eax
  4032dc:	84 c0                	test   %al,%al
  4032de:	0f 84 af fe ff ff    	je     403193 <.text+0x913>
  4032e4:	8d 72 02             	lea    0x2(%edx),%esi
  4032e7:	0f b6 42 03          	movzbl 0x3(%edx),%eax
  4032eb:	89 f2                	mov    %esi,%edx
  4032ed:	e9 a3 fe ff ff       	jmp    403195 <.text+0x915>
  4032f2:	8d b6 00 00 00 00    	lea    0x0(%esi),%esi
  4032f8:	c6 40 02 00          	movb   $0x0,0x2(%eax)
  4032fc:	c7 45 d4 01 00 00 00 	movl   $0x1,-0x2c(%ebp)
  403303:	e9 40 ff ff ff       	jmp    403248 <.text+0x9c8>
  403308:	8d b4 26 00 00 00 00 	lea    0x0(%esi,%eiz,1),%esi
  40330f:	90                   	nop
  403310:	80 fa 7b             	cmp    $0x7b,%dl
  403313:	74 7b                	je     403390 <.text+0xb10>
  403315:	80 fa 7d             	cmp    $0x7d,%dl
  403318:	0f 84 a2 00 00 00    	je     4033c0 <.text+0xb40>
  40331e:	84 d2                	test   %dl,%dl
  403320:	0f 84 18 ff ff ff    	je     40323e <.text+0x9be>
  403326:	89 c2                	mov    %eax,%edx
  403328:	e9 e3 fe ff ff       	jmp    403210 <.text+0x990>
  40332d:	8d 76 00             	lea    0x0(%esi),%esi
  403330:	89 f0                	mov    %esi,%eax
  403332:	83 c0 01             	add    $0x1,%eax
  403335:	8d 76 00             	lea    0x0(%esi),%esi
  403338:	0f b6 10             	movzbl (%eax),%edx
  40333b:	83 c1 01             	add    $0x1,%ecx
  40333e:	83 c0 01             	add    $0x1,%eax
  403341:	88 51 ff             	mov    %dl,-0x1(%ecx)
  403344:	84 d2                	test   %dl,%dl
  403346:	75 f0                	jne    403338 <.text+0xab8>
  403348:	8b 45 08             	mov    0x8(%ebp),%eax
  40334b:	89 fa                	mov    %edi,%edx
  40334d:	83 cf 01             	or     $0x1,%edi
  403350:	89 04 24             	mov    %eax,(%esp)
  403353:	8b 4d c8             	mov    -0x38(%ebp),%ecx
  403356:	8b 45 bc             	mov    -0x44(%ebp),%eax
  403359:	e8 22 fc ff ff       	call   402f80 <.text+0x700>
  40335e:	83 f8 01             	cmp    $0x1,%eax
  403361:	74 99                	je     4032fc <.text+0xa7c>
  403363:	80 3e 2c             	cmpb   $0x2c,(%esi)
  403366:	0f 85 92 02 00 00    	jne    4035fe <.text+0xd7e>
  40336c:	0f b6 5e 01          	movzbl 0x1(%esi),%ebx
  403370:	e9 5e fe ff ff       	jmp    4031d3 <.text+0x953>
  403375:	8d 76 00             	lea    0x0(%esi),%esi
  403378:	8b 45 d4             	mov    -0x2c(%ebp),%eax
  40337b:	8b 65 bc             	mov    -0x44(%ebp),%esp
  40337e:	8d 65 f4             	lea    -0xc(%ebp),%esp
  403381:	5b                   	pop    %ebx
  403382:	5e                   	pop    %esi
  403383:	5f                   	pop    %edi
  403384:	5d                   	pop    %ebp
  403385:	c3                   	ret    
  403386:	8d b4 26 00 00 00 00 	lea    0x0(%esi,%eiz,1),%esi
  40338d:	8d 76 00             	lea    0x0(%esi),%esi
  403390:	83 c3 01             	add    $0x1,%ebx
  403393:	89 c2                	mov    %eax,%edx
  403395:	e9 76 fe ff ff       	jmp    403210 <.text+0x990>
  40339a:	8d b6 00 00 00 00    	lea    0x0(%esi),%esi
  4033a0:	0f b6 42 02          	movzbl 0x2(%edx),%eax
  4033a4:	c7 45 cc 7b 00 00 00 	movl   $0x7b,-0x34(%ebp)
  4033ab:	89 f2                	mov    %esi,%edx
  4033ad:	e9 e3 fd ff ff       	jmp    403195 <.text+0x915>
  4033b2:	8b 65 b8             	mov    -0x48(%ebp),%esp
  4033b5:	e9 e1 fb ff ff       	jmp    402f9b <.text+0x71b>
  4033ba:	8d b6 00 00 00 00    	lea    0x0(%esi),%esi
  4033c0:	83 eb 01             	sub    $0x1,%ebx
  4033c3:	0f 84 69 ff ff ff    	je     403332 <.text+0xab2>
  4033c9:	89 c2                	mov    %eax,%edx
  4033cb:	e9 40 fe ff ff       	jmp    403210 <.text+0x990>
  4033d0:	8b 45 c0             	mov    -0x40(%ebp),%eax
  4033d3:	89 04 24             	mov    %eax,(%esp)
  4033d6:	e8 b1 11 00 00       	call   40458c <_strlen>
  4033db:	8b 7d c4             	mov    -0x3c(%ebp),%edi
  4033de:	8b 55 c4             	mov    -0x3c(%ebp),%edx
  4033e1:	8d 1c 07             	lea    (%edi,%eax,1),%ebx
  4033e4:	0f b6 03             	movzbl (%ebx),%eax
  4033e7:	39 df                	cmp    %ebx,%edi
  4033e9:	73 17                	jae    403402 <.text+0xb82>
  4033eb:	8d 74 26 00          	lea    0x0(%esi,%eiz,1),%esi
  4033ef:	90                   	nop
  4033f0:	3c 2f                	cmp    $0x2f,%al
  4033f2:	74 1c                	je     403410 <.text+0xb90>
  4033f4:	3c 5c                	cmp    $0x5c,%al
  4033f6:	74 0a                	je     403402 <.text+0xb82>
  4033f8:	83 eb 01             	sub    $0x1,%ebx
  4033fb:	0f b6 03             	movzbl (%ebx),%eax
  4033fe:	39 da                	cmp    %ebx,%edx
  403400:	75 ee                	jne    4033f0 <.text+0xb70>
  403402:	3c 2f                	cmp    $0x2f,%al
  403404:	74 0a                	je     403410 <.text+0xb90>
  403406:	3c 5c                	cmp    $0x5c,%al
  403408:	74 06                	je     403410 <.text+0xb90>
  40340a:	c6 45 9f 5c          	movb   $0x5c,-0x61(%ebp)
  40340e:	eb 13                	jmp    403423 <.text+0xba3>
  403410:	83 c3 01             	add    $0x1,%ebx
  403413:	89 c2                	mov    %eax,%edx
  403415:	0f b6 03             	movzbl (%ebx),%eax
  403418:	3c 2f                	cmp    $0x2f,%al
  40341a:	74 f4                	je     403410 <.text+0xb90>
  40341c:	3c 5c                	cmp    $0x5c,%al
  40341e:	74 f0                	je     403410 <.text+0xb90>
  403420:	88 55 9f             	mov    %dl,-0x61(%ebp)
  403423:	8b 7d e0             	mov    -0x20(%ebp),%edi
  403426:	c7 45 d4 02 00 00 00 	movl   $0x2,-0x2c(%ebp)
  40342d:	8b 07                	mov    (%edi),%eax
  40342f:	85 c0                	test   %eax,%eax
  403431:	0f 84 36 02 00 00    	je     40366d <.text+0xded>
  403437:	8b 4d d0             	mov    -0x30(%ebp),%ecx
  40343a:	89 5d b8             	mov    %ebx,-0x48(%ebp)
  40343d:	89 fb                	mov    %edi,%ebx
  40343f:	81 e1 00 80 00 00    	and    $0x8000,%ecx
  403445:	89 4d c4             	mov    %ecx,-0x3c(%ebp)
  403448:	eb 4c                	jmp    403496 <.text+0xc16>
  40344a:	8d b6 00 00 00 00    	lea    0x0(%esi),%esi
  403450:	f6 45 d0 04          	testb  $0x4,-0x30(%ebp)
  403454:	75 22                	jne    403478 <.text+0xbf8>
  403456:	8b 7d c8             	mov    -0x38(%ebp),%edi
  403459:	85 ff                	test   %edi,%edi
  40345b:	74 22                	je     40347f <.text+0xbff>
  40345d:	e8 aa 11 00 00       	call   40460c <__errno>
  403462:	8b 00                	mov    (%eax),%eax
  403464:	89 44 24 04          	mov    %eax,0x4(%esp)
  403468:	8b 03                	mov    (%ebx),%eax
  40346a:	89 04 24             	mov    %eax,(%esp)
  40346d:	ff d7                	call   *%edi
  40346f:	85 c0                	test   %eax,%eax
  403471:	74 0c                	je     40347f <.text+0xbff>
  403473:	8d 74 26 00          	lea    0x0(%esi,%eiz,1),%esi
  403477:	90                   	nop
  403478:	c7 45 d4 01 00 00 00 	movl   $0x1,-0x2c(%ebp)
  40347f:	8b 03                	mov    (%ebx),%eax
  403481:	83 c3 04             	add    $0x4,%ebx
  403484:	89 04 24             	mov    %eax,(%esp)
  403487:	e8 c4 f3 ff ff       	call   402850 <___mingw_aligned_free>
  40348c:	8b 03                	mov    (%ebx),%eax
  40348e:	85 c0                	test   %eax,%eax
  403490:	0f 84 e7 01 00 00    	je     40367d <.text+0xdfd>
  403496:	83 7d d4 01          	cmpl   $0x1,-0x2c(%ebp)
  40349a:	74 dc                	je     403478 <.text+0xbf8>
  40349c:	89 04 24             	mov    %eax,(%esp)
  40349f:	e8 ac 0a 00 00       	call   403f50 <___mingw_opendir>
  4034a4:	89 45 cc             	mov    %eax,-0x34(%ebp)
  4034a7:	85 c0                	test   %eax,%eax
  4034a9:	74 a5                	je     403450 <.text+0xbd0>
  4034ab:	8b 45 c0             	mov    -0x40(%ebp),%eax
  4034ae:	c7 45 b4 00 00 00 00 	movl   $0x0,-0x4c(%ebp)
  4034b5:	85 c0                	test   %eax,%eax
  4034b7:	74 0d                	je     4034c6 <.text+0xc46>
  4034b9:	8b 03                	mov    (%ebx),%eax
  4034bb:	89 04 24             	mov    %eax,(%esp)
  4034be:	e8 c9 10 00 00       	call   40458c <_strlen>
  4034c3:	89 45 b4             	mov    %eax,-0x4c(%ebp)
  4034c6:	8b 45 b4             	mov    -0x4c(%ebp),%eax
  4034c9:	c7 45 b0 00 00 00 00 	movl   $0x0,-0x50(%ebp)
  4034d0:	83 c0 02             	add    $0x2,%eax
  4034d3:	89 45 a0             	mov    %eax,-0x60(%ebp)
  4034d6:	8d b4 26 00 00 00 00 	lea    0x0(%esi,%eiz,1),%esi
  4034dd:	8d 76 00             	lea    0x0(%esi),%esi
  4034e0:	8b 45 cc             	mov    -0x34(%ebp),%eax
  4034e3:	89 04 24             	mov    %eax,(%esp)
  4034e6:	e8 65 0c 00 00       	call   404150 <___mingw_readdir>
  4034eb:	89 c6                	mov    %eax,%esi
  4034ed:	85 c0                	test   %eax,%eax
  4034ef:	0f 84 30 01 00 00    	je     403625 <.text+0xda5>
  4034f5:	8b 7d c4             	mov    -0x3c(%ebp),%edi
  4034f8:	85 ff                	test   %edi,%edi
  4034fa:	74 06                	je     403502 <.text+0xc82>
  4034fc:	83 7e 08 10          	cmpl   $0x10,0x8(%esi)
  403500:	75 de                	jne    4034e0 <.text+0xc60>
  403502:	8d 7e 0c             	lea    0xc(%esi),%edi
  403505:	8b 4d d0             	mov    -0x30(%ebp),%ecx
  403508:	8b 45 b8             	mov    -0x48(%ebp),%eax
  40350b:	89 fa                	mov    %edi,%edx
  40350d:	e8 9e f6 ff ff       	call   402bb0 <.text+0x330>
  403512:	85 c0                	test   %eax,%eax
  403514:	75 ca                	jne    4034e0 <.text+0xc60>
  403516:	0f b7 4e 06          	movzwl 0x6(%esi),%ecx
  40351a:	8b 45 a0             	mov    -0x60(%ebp),%eax
  40351d:	89 65 ac             	mov    %esp,-0x54(%ebp)
  403520:	8d 44 01 0f          	lea    0xf(%ecx,%eax,1),%eax
  403524:	c1 e8 04             	shr    $0x4,%eax
  403527:	c1 e0 04             	shl    $0x4,%eax
  40352a:	e8 09 10 00 00       	call   404538 <___chkstk_ms>
  40352f:	8b 75 b4             	mov    -0x4c(%ebp),%esi
  403532:	29 c4                	sub    %eax,%esp
  403534:	8d 54 24 0c          	lea    0xc(%esp),%edx
  403538:	89 55 a8             	mov    %edx,-0x58(%ebp)
  40353b:	89 d0                	mov    %edx,%eax
  40353d:	85 f6                	test   %esi,%esi
  40353f:	0f 85 3f 01 00 00    	jne    403684 <.text+0xe04>
  403545:	83 c1 01             	add    $0x1,%ecx
  403548:	89 55 a4             	mov    %edx,-0x5c(%ebp)
  40354b:	89 4c 24 08          	mov    %ecx,0x8(%esp)
  40354f:	89 7c 24 04          	mov    %edi,0x4(%esp)
  403553:	89 e7                	mov    %esp,%edi
  403555:	89 04 24             	mov    %eax,(%esp)
  403558:	e8 5f 10 00 00       	call   4045bc <_memcpy>
  40355d:	8b 55 a4             	mov    -0x5c(%ebp),%edx
  403560:	89 14 24             	mov    %edx,(%esp)
  403563:	e8 24 10 00 00       	call   40458c <_strlen>
  403568:	83 c0 10             	add    $0x10,%eax
  40356b:	c1 e8 04             	shr    $0x4,%eax
  40356e:	c1 e0 04             	shl    $0x4,%eax
  403571:	e8 c2 0f 00 00       	call   404538 <___chkstk_ms>
  403576:	8b 75 a8             	mov    -0x58(%ebp),%esi
  403579:	29 c4                	sub    %eax,%esp
  40357b:	8d 44 24 0c          	lea    0xc(%esp),%eax
  40357f:	89 45 a4             	mov    %eax,-0x5c(%ebp)
  403582:	89 c2                	mov    %eax,%edx
  403584:	eb 16                	jmp    40359c <.text+0xd1c>
  403586:	8d b4 26 00 00 00 00 	lea    0x0(%esi,%eiz,1),%esi
  40358d:	8d 76 00             	lea    0x0(%esi),%esi
  403590:	83 c2 01             	add    $0x1,%edx
  403593:	89 ce                	mov    %ecx,%esi
  403595:	88 42 ff             	mov    %al,-0x1(%edx)
  403598:	84 c0                	test   %al,%al
  40359a:	74 1b                	je     4035b7 <.text+0xd37>
  40359c:	0f b6 06             	movzbl (%esi),%eax
  40359f:	8d 4e 01             	lea    0x1(%esi),%ecx
  4035a2:	3c 7f                	cmp    $0x7f,%al
  4035a4:	75 ea                	jne    403590 <.text+0xd10>
  4035a6:	0f b6 46 01          	movzbl 0x1(%esi),%eax
  4035aa:	83 c2 01             	add    $0x1,%edx
  4035ad:	83 c6 02             	add    $0x2,%esi
  4035b0:	88 42 ff             	mov    %al,-0x1(%edx)
  4035b3:	84 c0                	test   %al,%al
  4035b5:	75 e5                	jne    40359c <.text+0xd1c>
  4035b7:	8b 45 a4             	mov    -0x5c(%ebp),%eax
  4035ba:	89 04 24             	mov    %eax,(%esp)
  4035bd:	e8 aa 0f 00 00       	call   40456c <_strdup>
  4035c2:	89 fc                	mov    %edi,%esp
  4035c4:	89 c6                	mov    %eax,%esi
  4035c6:	85 c0                	test   %eax,%eax
  4035c8:	0f 84 38 02 00 00    	je     403806 <.text+0xf86>
  4035ce:	8b 7d d4             	mov    -0x2c(%ebp),%edi
  4035d1:	31 c0                	xor    %eax,%eax
  4035d3:	83 ff 02             	cmp    $0x2,%edi
  4035d6:	0f 94 c0             	sete   %al
  4035d9:	83 e8 01             	sub    $0x1,%eax
  4035dc:	21 c7                	and    %eax,%edi
  4035de:	89 7d d4             	mov    %edi,-0x2c(%ebp)
  4035e1:	f6 45 d0 40          	testb  $0x40,-0x30(%ebp)
  4035e5:	0f 84 e2 00 00 00    	je     4036cd <.text+0xe4d>
  4035eb:	8b 55 08             	mov    0x8(%ebp),%edx
  4035ee:	85 d2                	test   %edx,%edx
  4035f0:	0f 85 5e 01 00 00    	jne    403754 <.text+0xed4>
  4035f6:	8b 65 ac             	mov    -0x54(%ebp),%esp
  4035f9:	e9 e2 fe ff ff       	jmp    4034e0 <.text+0xc60>
  4035fe:	89 45 d4             	mov    %eax,-0x2c(%ebp)
  403601:	e9 42 fc ff ff       	jmp    403248 <.text+0x9c8>
  403606:	8d 45 d8             	lea    -0x28(%ebp),%eax
  403609:	8b 55 d0             	mov    -0x30(%ebp),%edx
  40360c:	89 04 24             	mov    %eax,(%esp)
  40360f:	8b 4d c8             	mov    -0x38(%ebp),%ecx
  403612:	8b 45 c0             	mov    -0x40(%ebp),%eax
  403615:	80 ce 80             	or     $0x80,%dh
  403618:	e8 63 f9 ff ff       	call   402f80 <.text+0x700>
  40361d:	89 45 d4             	mov    %eax,-0x2c(%ebp)
  403620:	e9 5e fa ff ff       	jmp    403083 <.text+0x803>
  403625:	8b 45 cc             	mov    -0x34(%ebp),%eax
  403628:	89 04 24             	mov    %eax,(%esp)
  40362b:	e8 70 0b 00 00       	call   4041a0 <___mingw_closedir>
  403630:	8b 45 b0             	mov    -0x50(%ebp),%eax
  403633:	85 c0                	test   %eax,%eax
  403635:	0f 84 44 fe ff ff    	je     40347f <.text+0xbff>
  40363b:	8b 55 08             	mov    0x8(%ebp),%edx
  40363e:	8b 45 b0             	mov    -0x50(%ebp),%eax
  403641:	e8 9a f8 ff ff       	call   402ee0 <.text+0x660>
  403646:	e9 34 fe ff ff       	jmp    40347f <.text+0xbff>
  40364b:	89 34 24             	mov    %esi,(%esp)
  40364e:	e8 19 0f 00 00       	call   40456c <_strdup>
  403653:	89 dc                	mov    %ebx,%esp
  403655:	85 c0                	test   %eax,%eax
  403657:	74 24                	je     40367d <.text+0xdfd>
  403659:	8b 55 08             	mov    0x8(%ebp),%edx
  40365c:	85 d2                	test   %edx,%edx
  40365e:	74 1d                	je     40367d <.text+0xdfd>
  403660:	8b 55 08             	mov    0x8(%ebp),%edx
  403663:	e8 18 f8 ff ff       	call   402e80 <.text+0x600>
  403668:	8b 45 e0             	mov    -0x20(%ebp),%eax
  40366b:	89 c7                	mov    %eax,%edi
  40366d:	89 3c 24             	mov    %edi,(%esp)
  403670:	e8 db f1 ff ff       	call   402850 <___mingw_aligned_free>
  403675:	8b 65 bc             	mov    -0x44(%ebp),%esp
  403678:	e9 ce fb ff ff       	jmp    40324b <.text+0x9cb>
  40367d:	8b 45 e0             	mov    -0x20(%ebp),%eax
  403680:	89 c7                	mov    %eax,%edi
  403682:	eb e9                	jmp    40366d <.text+0xded>
  403684:	8b 75 b4             	mov    -0x4c(%ebp),%esi
  403687:	8b 03                	mov    (%ebx),%eax
  403689:	89 4d 98             	mov    %ecx,-0x68(%ebp)
  40368c:	89 14 24             	mov    %edx,(%esp)
  40368f:	89 74 24 08          	mov    %esi,0x8(%esp)
  403693:	89 44 24 04          	mov    %eax,0x4(%esp)
  403697:	89 55 a4             	mov    %edx,-0x5c(%ebp)
  40369a:	e8 1d 0f 00 00       	call   4045bc <_memcpy>
  40369f:	0f b6 44 34 0b       	movzbl 0xb(%esp,%esi,1),%eax
  4036a4:	8b 55 a4             	mov    -0x5c(%ebp),%edx
  4036a7:	8b 4d 98             	mov    -0x68(%ebp),%ecx
  4036aa:	3c 2f                	cmp    $0x2f,%al
  4036ac:	0f 84 b1 00 00 00    	je     403763 <.text+0xee3>
  4036b2:	3c 5c                	cmp    $0x5c,%al
  4036b4:	0f 84 a9 00 00 00    	je     403763 <.text+0xee3>
  4036ba:	8b 75 b4             	mov    -0x4c(%ebp),%esi
  4036bd:	0f b6 45 9f          	movzbl -0x61(%ebp),%eax
  4036c1:	88 04 32             	mov    %al,(%edx,%esi,1)
  4036c4:	8d 44 32 01          	lea    0x1(%edx,%esi,1),%eax
  4036c8:	e9 78 fe ff ff       	jmp    403545 <.text+0xcc5>
  4036cd:	8b 7d b0             	mov    -0x50(%ebp),%edi
  4036d0:	85 ff                	test   %edi,%edi
  4036d2:	0f 84 ff 00 00 00    	je     4037d7 <.text+0xf57>
  4036d8:	8b 45 d0             	mov    -0x30(%ebp),%eax
  4036db:	89 5d a8             	mov    %ebx,-0x58(%ebp)
  4036de:	25 00 40 00 00       	and    $0x4000,%eax
  4036e3:	89 c3                	mov    %eax,%ebx
  4036e5:	eb 1f                	jmp    403706 <.text+0xe86>
  4036e7:	8d b4 26 00 00 00 00 	lea    0x0(%esi,%eiz,1),%esi
  4036ee:	66 90                	xchg   %ax,%ax
  4036f0:	e8 9f 0e 00 00       	call   404594 <_strcoll>
  4036f5:	8b 0f                	mov    (%edi),%ecx
  4036f7:	8b 57 04             	mov    0x4(%edi),%edx
  4036fa:	85 c0                	test   %eax,%eax
  4036fc:	7f 02                	jg     403700 <.text+0xe80>
  4036fe:	89 ca                	mov    %ecx,%edx
  403700:	85 d2                	test   %edx,%edx
  403702:	74 17                	je     40371b <.text+0xe9b>
  403704:	89 d7                	mov    %edx,%edi
  403706:	8b 47 08             	mov    0x8(%edi),%eax
  403709:	89 34 24             	mov    %esi,(%esp)
  40370c:	89 44 24 04          	mov    %eax,0x4(%esp)
  403710:	85 db                	test   %ebx,%ebx
  403712:	75 dc                	jne    4036f0 <.text+0xe70>
  403714:	e8 4b 0e 00 00       	call   404564 <_stricoll>
  403719:	eb da                	jmp    4036f5 <.text+0xe75>
  40371b:	8b 5d a8             	mov    -0x58(%ebp),%ebx
  40371e:	89 45 a8             	mov    %eax,-0x58(%ebp)
  403721:	c7 04 24 0c 00 00 00 	movl   $0xc,(%esp)
  403728:	e8 9f 0e 00 00       	call   4045cc <_malloc>
  40372d:	8b 55 a8             	mov    -0x58(%ebp),%edx
  403730:	85 c0                	test   %eax,%eax
  403732:	0f 84 be fe ff ff    	je     4035f6 <.text+0xd76>
  403738:	89 70 08             	mov    %esi,0x8(%eax)
  40373b:	c7 40 04 00 00 00 00 	movl   $0x0,0x4(%eax)
  403742:	c7 00 00 00 00 00    	movl   $0x0,(%eax)
  403748:	85 d2                	test   %edx,%edx
  40374a:	7e 21                	jle    40376d <.text+0xeed>
  40374c:	89 47 04             	mov    %eax,0x4(%edi)
  40374f:	e9 a2 fe ff ff       	jmp    4035f6 <.text+0xd76>
  403754:	8b 55 08             	mov    0x8(%ebp),%edx
  403757:	89 f0                	mov    %esi,%eax
  403759:	e8 22 f7 ff ff       	call   402e80 <.text+0x600>
  40375e:	e9 93 fe ff ff       	jmp    4035f6 <.text+0xd76>
  403763:	8b 45 b4             	mov    -0x4c(%ebp),%eax
  403766:	01 d0                	add    %edx,%eax
  403768:	e9 d8 fd ff ff       	jmp    403545 <.text+0xcc5>
  40376d:	89 07                	mov    %eax,(%edi)
  40376f:	e9 82 fe ff ff       	jmp    4035f6 <.text+0xd76>
  403774:	8b 7d c4             	mov    -0x3c(%ebp),%edi
  403777:	8b 55 d0             	mov    -0x30(%ebp),%edx
  40377a:	89 f8                	mov    %edi,%eax
  40377c:	e8 5f f6 ff ff       	call   402de0 <.text+0x560>
  403781:	89 45 d4             	mov    %eax,-0x2c(%ebp)
  403784:	85 c0                	test   %eax,%eax
  403786:	74 08                	je     403790 <.text+0xf10>
  403788:	8b 5d c4             	mov    -0x3c(%ebp),%ebx
  40378b:	e9 35 f9 ff ff       	jmp    4030c5 <.text+0x845>
  403790:	89 3c 24             	mov    %edi,(%esp)
  403793:	89 e3                	mov    %esp,%ebx
  403795:	e8 f2 0d 00 00       	call   40458c <_strlen>
  40379a:	83 c0 10             	add    $0x10,%eax
  40379d:	c1 e8 04             	shr    $0x4,%eax
  4037a0:	c1 e0 04             	shl    $0x4,%eax
  4037a3:	e8 90 0d 00 00       	call   404538 <___chkstk_ms>
  4037a8:	29 c4                	sub    %eax,%esp
  4037aa:	89 f9                	mov    %edi,%ecx
  4037ac:	8d 74 24 0c          	lea    0xc(%esp),%esi
  4037b0:	89 f2                	mov    %esi,%edx
  4037b2:	eb 10                	jmp    4037c4 <.text+0xf44>
  4037b4:	89 f9                	mov    %edi,%ecx
  4037b6:	83 c2 01             	add    $0x1,%edx
  4037b9:	88 42 ff             	mov    %al,-0x1(%edx)
  4037bc:	84 c0                	test   %al,%al
  4037be:	0f 84 87 fe ff ff    	je     40364b <.text+0xdcb>
  4037c4:	0f b6 01             	movzbl (%ecx),%eax
  4037c7:	8d 79 01             	lea    0x1(%ecx),%edi
  4037ca:	3c 7f                	cmp    $0x7f,%al
  4037cc:	75 e6                	jne    4037b4 <.text+0xf34>
  4037ce:	0f b6 41 01          	movzbl 0x1(%ecx),%eax
  4037d2:	83 c1 02             	add    $0x2,%ecx
  4037d5:	eb df                	jmp    4037b6 <.text+0xf36>
  4037d7:	c7 04 24 0c 00 00 00 	movl   $0xc,(%esp)
  4037de:	e8 e9 0d 00 00       	call   4045cc <_malloc>
  4037e3:	89 45 b0             	mov    %eax,-0x50(%ebp)
  4037e6:	85 c0                	test   %eax,%eax
  4037e8:	0f 84 08 fe ff ff    	je     4035f6 <.text+0xd76>
  4037ee:	8b 45 b0             	mov    -0x50(%ebp),%eax
  4037f1:	89 70 08             	mov    %esi,0x8(%eax)
  4037f4:	c7 40 04 00 00 00 00 	movl   $0x0,0x4(%eax)
  4037fb:	c7 00 00 00 00 00    	movl   $0x0,(%eax)
  403801:	e9 f0 fd ff ff       	jmp    4035f6 <.text+0xd76>
  403806:	c7 45 d4 03 00 00 00 	movl   $0x3,-0x2c(%ebp)
  40380d:	e9 e4 fd ff ff       	jmp    4035f6 <.text+0xd76>
  403812:	8d b4 26 00 00 00 00 	lea    0x0(%esi,%eiz,1),%esi
  403819:	8d b4 26 00 00 00 00 	lea    0x0(%esi,%eiz,1),%esi

00403820 <___mingw_glob>:
  403820:	55                   	push   %ebp
  403821:	89 e5                	mov    %esp,%ebp
  403823:	57                   	push   %edi
  403824:	56                   	push   %esi
  403825:	53                   	push   %ebx
  403826:	83 ec 2c             	sub    $0x2c,%esp
  403829:	8b 75 14             	mov    0x14(%ebp),%esi
  40382c:	8b 5d 08             	mov    0x8(%ebp),%ebx
  40382f:	8b 7d 0c             	mov    0xc(%ebp),%edi
  403832:	85 f6                	test   %esi,%esi
  403834:	74 08                	je     40383e <___mingw_glob+0x1e>
  403836:	f7 c7 02 00 00 00    	test   $0x2,%edi
  40383c:	74 3a                	je     403878 <___mingw_glob+0x58>
  40383e:	81 3e f8 63 40 00    	cmpl   $0x4063f8,(%esi)
  403844:	74 0d                	je     403853 <___mingw_glob+0x33>
  403846:	89 f0                	mov    %esi,%eax
  403848:	e8 e3 f6 ff ff       	call   402f30 <.text+0x6b0>
  40384d:	c7 06 f8 63 40 00    	movl   $0x4063f8,(%esi)
  403853:	89 34 24             	mov    %esi,(%esp)
  403856:	8b 4d 10             	mov    0x10(%ebp),%ecx
  403859:	89 fa                	mov    %edi,%edx
  40385b:	89 d8                	mov    %ebx,%eax
  40385d:	e8 1e f7 ff ff       	call   402f80 <.text+0x700>
  403862:	89 c1                	mov    %eax,%ecx
  403864:	83 f8 02             	cmp    $0x2,%eax
  403867:	74 1f                	je     403888 <___mingw_glob+0x68>
  403869:	8d 65 f4             	lea    -0xc(%ebp),%esp
  40386c:	89 c8                	mov    %ecx,%eax
  40386e:	5b                   	pop    %ebx
  40386f:	5e                   	pop    %esi
  403870:	5f                   	pop    %edi
  403871:	5d                   	pop    %ebp
  403872:	c3                   	ret    
  403873:	8d 74 26 00          	lea    0x0(%esi,%eiz,1),%esi
  403877:	90                   	nop
  403878:	c7 46 0c 00 00 00 00 	movl   $0x0,0xc(%esi)
  40387f:	eb bd                	jmp    40383e <___mingw_glob+0x1e>
  403881:	8d b4 26 00 00 00 00 	lea    0x0(%esi,%eiz,1),%esi
  403888:	83 e7 10             	and    $0x10,%edi
  40388b:	74 dc                	je     403869 <___mingw_glob+0x49>
  40388d:	89 45 dc             	mov    %eax,-0x24(%ebp)
  403890:	89 65 e4             	mov    %esp,-0x1c(%ebp)
  403893:	89 1c 24             	mov    %ebx,(%esp)
  403896:	e8 f1 0c 00 00       	call   40458c <_strlen>
  40389b:	83 c0 10             	add    $0x10,%eax
  40389e:	c1 e8 04             	shr    $0x4,%eax
  4038a1:	c1 e0 04             	shl    $0x4,%eax
  4038a4:	e8 8f 0c 00 00       	call   404538 <___chkstk_ms>
  4038a9:	8b 4d dc             	mov    -0x24(%ebp),%ecx
  4038ac:	29 c4                	sub    %eax,%esp
  4038ae:	8d 44 24 04          	lea    0x4(%esp),%eax
  4038b2:	89 45 e0             	mov    %eax,-0x20(%ebp)
  4038b5:	89 c2                	mov    %eax,%edx
  4038b7:	eb 13                	jmp    4038cc <___mingw_glob+0xac>
  4038b9:	8d b4 26 00 00 00 00 	lea    0x0(%esi,%eiz,1),%esi
  4038c0:	83 c2 01             	add    $0x1,%edx
  4038c3:	89 fb                	mov    %edi,%ebx
  4038c5:	88 42 ff             	mov    %al,-0x1(%edx)
  4038c8:	84 c0                	test   %al,%al
  4038ca:	74 1b                	je     4038e7 <___mingw_glob+0xc7>
  4038cc:	0f b6 03             	movzbl (%ebx),%eax
  4038cf:	8d 7b 01             	lea    0x1(%ebx),%edi
  4038d2:	3c 7f                	cmp    $0x7f,%al
  4038d4:	75 ea                	jne    4038c0 <___mingw_glob+0xa0>
  4038d6:	0f b6 43 01          	movzbl 0x1(%ebx),%eax
  4038da:	83 c2 01             	add    $0x1,%edx
  4038dd:	83 c3 02             	add    $0x2,%ebx
  4038e0:	88 42 ff             	mov    %al,-0x1(%edx)
  4038e3:	84 c0                	test   %al,%al
  4038e5:	75 e5                	jne    4038cc <___mingw_glob+0xac>
  4038e7:	8b 45 e0             	mov    -0x20(%ebp),%eax
  4038ea:	89 4d dc             	mov    %ecx,-0x24(%ebp)
  4038ed:	89 04 24             	mov    %eax,(%esp)
  4038f0:	e8 77 0c 00 00       	call   40456c <_strdup>
  4038f5:	8b 65 e4             	mov    -0x1c(%ebp),%esp
  4038f8:	8b 4d dc             	mov    -0x24(%ebp),%ecx
  4038fb:	85 c0                	test   %eax,%eax
  4038fd:	0f 84 66 ff ff ff    	je     403869 <___mingw_glob+0x49>
  403903:	89 f2                	mov    %esi,%edx
  403905:	89 4d e4             	mov    %ecx,-0x1c(%ebp)
  403908:	e8 73 f5 ff ff       	call   402e80 <.text+0x600>
  40390d:	8b 4d e4             	mov    -0x1c(%ebp),%ecx
  403910:	e9 54 ff ff ff       	jmp    403869 <___mingw_glob+0x49>
  403915:	8d b4 26 00 00 00 00 	lea    0x0(%esi,%eiz,1),%esi
  40391c:	8d 74 26 00          	lea    0x0(%esi,%eiz,1),%esi

00403920 <___mingw_globfree>:
  403920:	57                   	push   %edi
  403921:	56                   	push   %esi
  403922:	53                   	push   %ebx
  403923:	83 ec 10             	sub    $0x10,%esp
  403926:	8b 74 24 20          	mov    0x20(%esp),%esi
  40392a:	81 3e f8 63 40 00    	cmpl   $0x4063f8,(%esi)
  403930:	74 0e                	je     403940 <___mingw_globfree+0x20>
  403932:	83 c4 10             	add    $0x10,%esp
  403935:	5b                   	pop    %ebx
  403936:	5e                   	pop    %esi
  403937:	5f                   	pop    %edi
  403938:	c3                   	ret    
  403939:	8d b4 26 00 00 00 00 	lea    0x0(%esi,%eiz,1),%esi
  403940:	8b 7e 04             	mov    0x4(%esi),%edi
  403943:	8b 5e 0c             	mov    0xc(%esi),%ebx
  403946:	85 ff                	test   %edi,%edi
  403948:	7e 1b                	jle    403965 <___mingw_globfree+0x45>
  40394a:	01 df                	add    %ebx,%edi
  40394c:	8d 74 26 00          	lea    0x0(%esi,%eiz,1),%esi
  403950:	8b 46 08             	mov    0x8(%esi),%eax
  403953:	8b 04 98             	mov    (%eax,%ebx,4),%eax
  403956:	83 c3 01             	add    $0x1,%ebx
  403959:	89 04 24             	mov    %eax,(%esp)
  40395c:	e8 ef ee ff ff       	call   402850 <___mingw_aligned_free>
  403961:	39 df                	cmp    %ebx,%edi
  403963:	75 eb                	jne    403950 <___mingw_globfree+0x30>
  403965:	8b 46 08             	mov    0x8(%esi),%eax
  403968:	89 44 24 20          	mov    %eax,0x20(%esp)
  40396c:	83 c4 10             	add    $0x10,%esp
  40396f:	5b                   	pop    %ebx
  403970:	5e                   	pop    %esi
  403971:	5f                   	pop    %edi
  403972:	e9 d9 ee ff ff       	jmp    402850 <___mingw_aligned_free>
  403977:	90                   	nop
  403978:	90                   	nop
  403979:	90                   	nop
  40397a:	90                   	nop
  40397b:	90                   	nop
  40397c:	90                   	nop
  40397d:	90                   	nop
  40397e:	90                   	nop
  40397f:	90                   	nop

00403980 <___mingw_dirname>:
  403980:	55                   	push   %ebp
  403981:	89 e5                	mov    %esp,%ebp
  403983:	57                   	push   %edi
  403984:	56                   	push   %esi
  403985:	53                   	push   %ebx
  403986:	83 ec 2c             	sub    $0x2c,%esp
  403989:	c7 44 24 04 00 00 00 	movl   $0x0,0x4(%esp)
  403990:	00 
  403991:	c7 04 24 02 00 00 00 	movl   $0x2,(%esp)
  403998:	e8 0f 0c 00 00       	call   4045ac <_setlocale>
  40399d:	89 c3                	mov    %eax,%ebx
  40399f:	85 c0                	test   %eax,%eax
  4039a1:	74 0a                	je     4039ad <___mingw_dirname+0x2d>
  4039a3:	89 04 24             	mov    %eax,(%esp)
  4039a6:	e8 c1 0b 00 00       	call   40456c <_strdup>
  4039ab:	89 c3                	mov    %eax,%ebx
  4039ad:	c7 44 24 04 0c 64 40 	movl   $0x40640c,0x4(%esp)
  4039b4:	00 
  4039b5:	c7 04 24 02 00 00 00 	movl   $0x2,(%esp)
  4039bc:	e8 eb 0b 00 00       	call   4045ac <_setlocale>
  4039c1:	8b 4d 08             	mov    0x8(%ebp),%ecx
  4039c4:	85 c9                	test   %ecx,%ecx
  4039c6:	74 08                	je     4039d0 <___mingw_dirname+0x50>
  4039c8:	8b 45 08             	mov    0x8(%ebp),%eax
  4039cb:	80 38 00             	cmpb   $0x0,(%eax)
  4039ce:	75 78                	jne    403a48 <___mingw_dirname+0xc8>
  4039d0:	c7 44 24 08 00 00 00 	movl   $0x0,0x8(%esp)
  4039d7:	00 
  4039d8:	c7 44 24 04 0e 64 40 	movl   $0x40640e,0x4(%esp)
  4039df:	00 
  4039e0:	c7 04 24 00 00 00 00 	movl   $0x0,(%esp)
  4039e7:	e8 88 0b 00 00       	call   404574 <_wcstombs>
  4039ec:	8d 70 01             	lea    0x1(%eax),%esi
  4039ef:	89 74 24 04          	mov    %esi,0x4(%esp)
  4039f3:	a1 6c 80 40 00       	mov    0x40806c,%eax
  4039f8:	89 04 24             	mov    %eax,(%esp)
  4039fb:	e8 c0 09 00 00       	call   4043c0 <___mingw_realloc>
  403a00:	a3 6c 80 40 00       	mov    %eax,0x40806c
  403a05:	89 74 24 08          	mov    %esi,0x8(%esp)
  403a09:	c7 44 24 04 0e 64 40 	movl   $0x40640e,0x4(%esp)
  403a10:	00 
  403a11:	89 04 24             	mov    %eax,(%esp)
  403a14:	e8 5b 0b 00 00       	call   404574 <_wcstombs>
  403a19:	89 5c 24 04          	mov    %ebx,0x4(%esp)
  403a1d:	c7 04 24 02 00 00 00 	movl   $0x2,(%esp)
  403a24:	e8 83 0b 00 00       	call   4045ac <_setlocale>
  403a29:	89 1c 24             	mov    %ebx,(%esp)
  403a2c:	e8 1f ee ff ff       	call   402850 <___mingw_aligned_free>
  403a31:	8b 35 6c 80 40 00    	mov    0x40806c,%esi
  403a37:	8d 65 f4             	lea    -0xc(%ebp),%esp
  403a3a:	89 f0                	mov    %esi,%eax
  403a3c:	5b                   	pop    %ebx
  403a3d:	5e                   	pop    %esi
  403a3e:	5f                   	pop    %edi
  403a3f:	5d                   	pop    %ebp
  403a40:	c3                   	ret    
  403a41:	8d b4 26 00 00 00 00 	lea    0x0(%esi,%eiz,1),%esi
  403a48:	89 65 dc             	mov    %esp,-0x24(%ebp)
  403a4b:	c7 44 24 08 00 00 00 	movl   $0x0,0x8(%esp)
  403a52:	00 
  403a53:	8b 45 08             	mov    0x8(%ebp),%eax
  403a56:	c7 04 24 00 00 00 00 	movl   $0x0,(%esp)
  403a5d:	89 44 24 04          	mov    %eax,0x4(%esp)
  403a61:	e8 5e 0b 00 00       	call   4045c4 <_mbstowcs>
  403a66:	89 c2                	mov    %eax,%edx
  403a68:	8d 44 00 11          	lea    0x11(%eax,%eax,1),%eax
  403a6c:	c1 e8 04             	shr    $0x4,%eax
  403a6f:	c1 e0 04             	shl    $0x4,%eax
  403a72:	e8 c1 0a 00 00       	call   404538 <___chkstk_ms>
  403a77:	29 c4                	sub    %eax,%esp
  403a79:	89 54 24 08          	mov    %edx,0x8(%esp)
  403a7d:	8b 45 08             	mov    0x8(%ebp),%eax
  403a80:	8d 7c 24 0c          	lea    0xc(%esp),%edi
  403a84:	89 3c 24             	mov    %edi,(%esp)
  403a87:	89 44 24 04          	mov    %eax,0x4(%esp)
  403a8b:	e8 34 0b 00 00       	call   4045c4 <_mbstowcs>
  403a90:	31 d2                	xor    %edx,%edx
  403a92:	83 f8 01             	cmp    $0x1,%eax
  403a95:	89 45 d8             	mov    %eax,-0x28(%ebp)
  403a98:	66 89 14 47          	mov    %dx,(%edi,%eax,2)
  403a9c:	0f b7 07             	movzwl (%edi),%eax
  403a9f:	76 3f                	jbe    403ae0 <___mingw_dirname+0x160>
  403aa1:	89 c1                	mov    %eax,%ecx
  403aa3:	66 89 45 e2          	mov    %ax,-0x1e(%ebp)
  403aa7:	0f b7 47 02          	movzwl 0x2(%edi),%eax
  403aab:	89 7d e4             	mov    %edi,-0x1c(%ebp)
  403aae:	66 83 f9 2f          	cmp    $0x2f,%cx
  403ab2:	0f 84 08 02 00 00    	je     403cc0 <___mingw_dirname+0x340>
  403ab8:	66 83 f9 5c          	cmp    $0x5c,%cx
  403abc:	0f 84 fe 01 00 00    	je     403cc0 <___mingw_dirname+0x340>
  403ac2:	66 83 f8 3a          	cmp    $0x3a,%ax
  403ac6:	75 1f                	jne    403ae7 <___mingw_dirname+0x167>
  403ac8:	8d 47 04             	lea    0x4(%edi),%eax
  403acb:	89 45 e4             	mov    %eax,-0x1c(%ebp)
  403ace:	0f b7 47 04          	movzwl 0x4(%edi),%eax
  403ad2:	66 89 45 e2          	mov    %ax,-0x1e(%ebp)
  403ad6:	eb 0f                	jmp    403ae7 <___mingw_dirname+0x167>
  403ad8:	8d b4 26 00 00 00 00 	lea    0x0(%esi,%eiz,1),%esi
  403adf:	90                   	nop
  403ae0:	66 89 45 e2          	mov    %ax,-0x1e(%ebp)
  403ae4:	89 7d e4             	mov    %edi,-0x1c(%ebp)
  403ae7:	66 83 7d e2 00       	cmpw   $0x0,-0x1e(%ebp)
  403aec:	75 12                	jne    403b00 <___mingw_dirname+0x180>
  403aee:	8b 65 dc             	mov    -0x24(%ebp),%esp
  403af1:	e9 da fe ff ff       	jmp    4039d0 <___mingw_dirname+0x50>
  403af6:	8d b4 26 00 00 00 00 	lea    0x0(%esi,%eiz,1),%esi
  403afd:	8d 76 00             	lea    0x0(%esi),%esi
  403b00:	8b 45 e4             	mov    -0x1c(%ebp),%eax
  403b03:	0f b7 55 e2          	movzwl -0x1e(%ebp),%edx
  403b07:	89 c1                	mov    %eax,%ecx
  403b09:	eb 19                	jmp    403b24 <___mingw_dirname+0x1a4>
  403b0b:	8d 74 26 00          	lea    0x0(%esi,%eiz,1),%esi
  403b0f:	90                   	nop
  403b10:	89 c6                	mov    %eax,%esi
  403b12:	66 83 fa 5c          	cmp    $0x5c,%dx
  403b16:	74 23                	je     403b3b <___mingw_dirname+0x1bb>
  403b18:	0f b7 56 02          	movzwl 0x2(%esi),%edx
  403b1c:	83 c0 02             	add    $0x2,%eax
  403b1f:	66 85 d2             	test   %dx,%dx
  403b22:	74 34                	je     403b58 <___mingw_dirname+0x1d8>
  403b24:	66 83 fa 2f          	cmp    $0x2f,%dx
  403b28:	75 e6                	jne    403b10 <___mingw_dirname+0x190>
  403b2a:	0f b7 10             	movzwl (%eax),%edx
  403b2d:	66 83 fa 2f          	cmp    $0x2f,%dx
  403b31:	75 11                	jne    403b44 <___mingw_dirname+0x1c4>
  403b33:	8d 74 26 00          	lea    0x0(%esi,%eiz,1),%esi
  403b37:	90                   	nop
  403b38:	83 c0 02             	add    $0x2,%eax
  403b3b:	0f b7 10             	movzwl (%eax),%edx
  403b3e:	66 83 fa 2f          	cmp    $0x2f,%dx
  403b42:	74 f4                	je     403b38 <___mingw_dirname+0x1b8>
  403b44:	66 83 fa 5c          	cmp    $0x5c,%dx
  403b48:	74 ee                	je     403b38 <___mingw_dirname+0x1b8>
  403b4a:	89 c6                	mov    %eax,%esi
  403b4c:	66 85 d2             	test   %dx,%dx
  403b4f:	74 07                	je     403b58 <___mingw_dirname+0x1d8>
  403b51:	89 c1                	mov    %eax,%ecx
  403b53:	eb c3                	jmp    403b18 <___mingw_dirname+0x198>
  403b55:	8d 76 00             	lea    0x0(%esi),%esi
  403b58:	39 4d e4             	cmp    %ecx,-0x1c(%ebp)
  403b5b:	0f 82 8f 00 00 00    	jb     403bf0 <___mingw_dirname+0x270>
  403b61:	0f b7 45 e2          	movzwl -0x1e(%ebp),%eax
  403b65:	66 83 f8 2f          	cmp    $0x2f,%ax
  403b69:	74 11                	je     403b7c <___mingw_dirname+0x1fc>
  403b6b:	66 83 f8 5c          	cmp    $0x5c,%ax
  403b6f:	74 0b                	je     403b7c <___mingw_dirname+0x1fc>
  403b71:	8b 45 e4             	mov    -0x1c(%ebp),%eax
  403b74:	b9 2e 00 00 00       	mov    $0x2e,%ecx
  403b79:	66 89 08             	mov    %cx,(%eax)
  403b7c:	8b 45 e4             	mov    -0x1c(%ebp),%eax
  403b7f:	31 d2                	xor    %edx,%edx
  403b81:	66 89 50 02          	mov    %dx,0x2(%eax)
  403b85:	c7 44 24 08 00 00 00 	movl   $0x0,0x8(%esp)
  403b8c:	00 
  403b8d:	89 7c 24 04          	mov    %edi,0x4(%esp)
  403b91:	c7 04 24 00 00 00 00 	movl   $0x0,(%esp)
  403b98:	e8 d7 09 00 00       	call   404574 <_wcstombs>
  403b9d:	8d 50 01             	lea    0x1(%eax),%edx
  403ba0:	89 54 24 04          	mov    %edx,0x4(%esp)
  403ba4:	a1 6c 80 40 00       	mov    0x40806c,%eax
  403ba9:	89 55 e4             	mov    %edx,-0x1c(%ebp)
  403bac:	89 04 24             	mov    %eax,(%esp)
  403baf:	e8 0c 08 00 00       	call   4043c0 <___mingw_realloc>
  403bb4:	8b 55 e4             	mov    -0x1c(%ebp),%edx
  403bb7:	a3 6c 80 40 00       	mov    %eax,0x40806c
  403bbc:	89 c6                	mov    %eax,%esi
  403bbe:	89 54 24 08          	mov    %edx,0x8(%esp)
  403bc2:	89 7c 24 04          	mov    %edi,0x4(%esp)
  403bc6:	89 04 24             	mov    %eax,(%esp)
  403bc9:	e8 a6 09 00 00       	call   404574 <_wcstombs>
  403bce:	89 5c 24 04          	mov    %ebx,0x4(%esp)
  403bd2:	c7 04 24 02 00 00 00 	movl   $0x2,(%esp)
  403bd9:	e8 ce 09 00 00       	call   4045ac <_setlocale>
  403bde:	89 1c 24             	mov    %ebx,(%esp)
  403be1:	e8 6a ec ff ff       	call   402850 <___mingw_aligned_free>
  403be6:	8b 65 dc             	mov    -0x24(%ebp),%esp
  403be9:	e9 49 fe ff ff       	jmp    403a37 <___mingw_dirname+0xb7>
  403bee:	66 90                	xchg   %ax,%ax
  403bf0:	89 c8                	mov    %ecx,%eax
  403bf2:	83 e9 02             	sub    $0x2,%ecx
  403bf5:	39 4d e4             	cmp    %ecx,-0x1c(%ebp)
  403bf8:	0f 83 4d 01 00 00    	jae    403d4b <___mingw_dirname+0x3cb>
  403bfe:	0f b7 01             	movzwl (%ecx),%eax
  403c01:	66 83 f8 2f          	cmp    $0x2f,%ax
  403c05:	74 e9                	je     403bf0 <___mingw_dirname+0x270>
  403c07:	66 83 f8 5c          	cmp    $0x5c,%ax
  403c0b:	74 e3                	je     403bf0 <___mingw_dirname+0x270>
  403c0d:	31 c0                	xor    %eax,%eax
  403c0f:	66 89 41 02          	mov    %ax,0x2(%ecx)
  403c13:	0f b7 07             	movzwl (%edi),%eax
  403c16:	89 f9                	mov    %edi,%ecx
  403c18:	66 83 f8 2f          	cmp    $0x2f,%ax
  403c1c:	74 12                	je     403c30 <___mingw_dirname+0x2b0>
  403c1e:	66 83 f8 5c          	cmp    $0x5c,%ax
  403c22:	0f 85 cd 00 00 00    	jne    403cf5 <___mingw_dirname+0x375>
  403c28:	8d b4 26 00 00 00 00 	lea    0x0(%esi,%eiz,1),%esi
  403c2f:	90                   	nop
  403c30:	0f b7 51 02          	movzwl 0x2(%ecx),%edx
  403c34:	83 c1 02             	add    $0x2,%ecx
  403c37:	66 83 fa 2f          	cmp    $0x2f,%dx
  403c3b:	74 f3                	je     403c30 <___mingw_dirname+0x2b0>
  403c3d:	66 83 fa 5c          	cmp    $0x5c,%dx
  403c41:	74 ed                	je     403c30 <___mingw_dirname+0x2b0>
  403c43:	89 ca                	mov    %ecx,%edx
  403c45:	29 fa                	sub    %edi,%edx
  403c47:	83 fa 04             	cmp    $0x4,%edx
  403c4a:	0f 8e a5 00 00 00    	jle    403cf5 <___mingw_dirname+0x375>
  403c50:	89 f9                	mov    %edi,%ecx
  403c52:	66 85 c0             	test   %ax,%ax
  403c55:	0f 84 c0 00 00 00    	je     403d1b <___mingw_dirname+0x39b>
  403c5b:	89 5d e4             	mov    %ebx,-0x1c(%ebp)
  403c5e:	89 ca                	mov    %ecx,%edx
  403c60:	eb 24                	jmp    403c86 <___mingw_dirname+0x306>
  403c62:	8d b6 00 00 00 00    	lea    0x0(%esi),%esi
  403c68:	0f b7 5a 02          	movzwl 0x2(%edx),%ebx
  403c6c:	8d 72 02             	lea    0x2(%edx),%esi
  403c6f:	66 83 f8 5c          	cmp    $0x5c,%ax
  403c73:	0f 84 97 00 00 00    	je     403d10 <___mingw_dirname+0x390>
  403c79:	89 d8                	mov    %ebx,%eax
  403c7b:	89 f2                	mov    %esi,%edx
  403c7d:	66 85 c0             	test   %ax,%ax
  403c80:	0f 84 92 00 00 00    	je     403d18 <___mingw_dirname+0x398>
  403c86:	83 c1 02             	add    $0x2,%ecx
  403c89:	66 89 41 fe          	mov    %ax,-0x2(%ecx)
  403c8d:	66 83 f8 2f          	cmp    $0x2f,%ax
  403c91:	75 d5                	jne    403c68 <___mingw_dirname+0x2e8>
  403c93:	0f b7 1a             	movzwl (%edx),%ebx
  403c96:	66 83 fb 5c          	cmp    $0x5c,%bx
  403c9a:	74 0c                	je     403ca8 <___mingw_dirname+0x328>
  403c9c:	89 d8                	mov    %ebx,%eax
  403c9e:	66 83 fb 2f          	cmp    $0x2f,%bx
  403ca2:	75 d9                	jne    403c7d <___mingw_dirname+0x2fd>
  403ca4:	8d 74 26 00          	lea    0x0(%esi,%eiz,1),%esi
  403ca8:	0f b7 42 02          	movzwl 0x2(%edx),%eax
  403cac:	83 c2 02             	add    $0x2,%edx
  403caf:	66 83 f8 2f          	cmp    $0x2f,%ax
  403cb3:	74 f3                	je     403ca8 <___mingw_dirname+0x328>
  403cb5:	66 83 f8 5c          	cmp    $0x5c,%ax
  403cb9:	74 ed                	je     403ca8 <___mingw_dirname+0x328>
  403cbb:	eb c0                	jmp    403c7d <___mingw_dirname+0x2fd>
  403cbd:	8d 76 00             	lea    0x0(%esi),%esi
  403cc0:	66 39 45 e2          	cmp    %ax,-0x1e(%ebp)
  403cc4:	0f 85 1d fe ff ff    	jne    403ae7 <___mingw_dirname+0x167>
  403cca:	66 83 7f 04 00       	cmpw   $0x0,0x4(%edi)
  403ccf:	0f 85 12 fe ff ff    	jne    403ae7 <___mingw_dirname+0x167>
  403cd5:	89 5c 24 04          	mov    %ebx,0x4(%esp)
  403cd9:	c7 04 24 02 00 00 00 	movl   $0x2,(%esp)
  403ce0:	e8 c7 08 00 00       	call   4045ac <_setlocale>
  403ce5:	89 1c 24             	mov    %ebx,(%esp)
  403ce8:	e8 63 eb ff ff       	call   402850 <___mingw_aligned_free>
  403ced:	8b 75 08             	mov    0x8(%ebp),%esi
  403cf0:	e9 f1 fe ff ff       	jmp    403be6 <___mingw_dirname+0x266>
  403cf5:	66 39 47 02          	cmp    %ax,0x2(%edi)
  403cf9:	0f 85 51 ff ff ff    	jne    403c50 <___mingw_dirname+0x2d0>
  403cff:	0f b7 01             	movzwl (%ecx),%eax
  403d02:	e9 4b ff ff ff       	jmp    403c52 <___mingw_dirname+0x2d2>
  403d07:	8d b4 26 00 00 00 00 	lea    0x0(%esi,%eiz,1),%esi
  403d0e:	66 90                	xchg   %ax,%ax
  403d10:	89 f2                	mov    %esi,%edx
  403d12:	eb 82                	jmp    403c96 <___mingw_dirname+0x316>
  403d14:	8d 74 26 00          	lea    0x0(%esi,%eiz,1),%esi
  403d18:	8b 5d e4             	mov    -0x1c(%ebp),%ebx
  403d1b:	8b 45 d8             	mov    -0x28(%ebp),%eax
  403d1e:	31 f6                	xor    %esi,%esi
  403d20:	66 89 31             	mov    %si,(%ecx)
  403d23:	89 44 24 08          	mov    %eax,0x8(%esp)
  403d27:	89 7c 24 04          	mov    %edi,0x4(%esp)
  403d2b:	8b 45 08             	mov    0x8(%ebp),%eax
  403d2e:	89 04 24             	mov    %eax,(%esp)
  403d31:	e8 3e 08 00 00       	call   404574 <_wcstombs>
  403d36:	8b 75 08             	mov    0x8(%ebp),%esi
  403d39:	83 f8 ff             	cmp    $0xffffffff,%eax
  403d3c:	0f 84 8c fe ff ff    	je     403bce <___mingw_dirname+0x24e>
  403d42:	c6 04 06 00          	movb   $0x0,(%esi,%eax,1)
  403d46:	e9 83 fe ff ff       	jmp    403bce <___mingw_dirname+0x24e>
  403d4b:	0f 85 bc fe ff ff    	jne    403c0d <___mingw_dirname+0x28d>
  403d51:	0f b7 75 e2          	movzwl -0x1e(%ebp),%esi
  403d55:	66 83 fe 2f          	cmp    $0x2f,%si
  403d59:	74 0a                	je     403d65 <___mingw_dirname+0x3e5>
  403d5b:	66 83 fe 5c          	cmp    $0x5c,%si
  403d5f:	0f 85 a8 fe ff ff    	jne    403c0d <___mingw_dirname+0x28d>
  403d65:	0f b7 75 e2          	movzwl -0x1e(%ebp),%esi
  403d69:	66 39 71 02          	cmp    %si,0x2(%ecx)
  403d6d:	0f 85 9a fe ff ff    	jne    403c0d <___mingw_dirname+0x28d>
  403d73:	0f b7 51 04          	movzwl 0x4(%ecx),%edx
  403d77:	66 83 fa 2f          	cmp    $0x2f,%dx
  403d7b:	0f 84 8c fe ff ff    	je     403c0d <___mingw_dirname+0x28d>
  403d81:	66 83 fa 5c          	cmp    $0x5c,%dx
  403d85:	0f 84 82 fe ff ff    	je     403c0d <___mingw_dirname+0x28d>
  403d8b:	89 c1                	mov    %eax,%ecx
  403d8d:	e9 7b fe ff ff       	jmp    403c0d <___mingw_dirname+0x28d>
  403d92:	90                   	nop
  403d93:	90                   	nop
  403d94:	90                   	nop
  403d95:	90                   	nop
  403d96:	90                   	nop
  403d97:	90                   	nop
  403d98:	90                   	nop
  403d99:	90                   	nop
  403d9a:	90                   	nop
  403d9b:	90                   	nop
  403d9c:	90                   	nop
  403d9d:	90                   	nop
  403d9e:	90                   	nop
  403d9f:	90                   	nop

00403da0 <.text>:
  403da0:	56                   	push   %esi
  403da1:	53                   	push   %ebx
  403da2:	89 d3                	mov    %edx,%ebx
  403da4:	81 ec 54 01 00 00    	sub    $0x154,%esp
  403daa:	8d 54 24 10          	lea    0x10(%esp),%edx
  403dae:	89 04 24             	mov    %eax,(%esp)
  403db1:	89 54 24 04          	mov    %edx,0x4(%esp)
  403db5:	e8 e2 08 00 00       	call   40469c <_FindFirstFileA@8>
  403dba:	83 ec 08             	sub    $0x8,%esp
  403dbd:	89 c6                	mov    %eax,%esi
  403dbf:	83 f8 ff             	cmp    $0xffffffff,%eax
  403dc2:	74 74                	je     403e38 <.text+0x98>
  403dc4:	31 c0                	xor    %eax,%eax
  403dc6:	8d 4b 0c             	lea    0xc(%ebx),%ecx
  403dc9:	66 89 43 06          	mov    %ax,0x6(%ebx)
  403dcd:	0f b6 44 24 3c       	movzbl 0x3c(%esp),%eax
  403dd2:	88 43 0c             	mov    %al,0xc(%ebx)
  403dd5:	84 c0                	test   %al,%al
  403dd7:	74 27                	je     403e00 <.text+0x60>
  403dd9:	31 c0                	xor    %eax,%eax
  403ddb:	eb 07                	jmp    403de4 <.text+0x44>
  403ddd:	8d 76 00             	lea    0x0(%esi),%esi
  403de0:	0f b7 43 06          	movzwl 0x6(%ebx),%eax
  403de4:	83 c0 01             	add    $0x1,%eax
  403de7:	66 89 43 06          	mov    %ax,0x6(%ebx)
  403deb:	66 3d 04 01          	cmp    $0x104,%ax
  403def:	0f b7 c0             	movzwl %ax,%eax
  403df2:	0f b6 44 04 3c       	movzbl 0x3c(%esp,%eax,1),%eax
  403df7:	83 d1 00             	adc    $0x0,%ecx
  403dfa:	88 01                	mov    %al,(%ecx)
  403dfc:	84 c0                	test   %al,%al
  403dfe:	75 e0                	jne    403de0 <.text+0x40>
  403e00:	8b 44 24 10          	mov    0x10(%esp),%eax
  403e04:	24 58                	and    $0x58,%al
  403e06:	83 f8 10             	cmp    $0x10,%eax
  403e09:	77 15                	ja     403e20 <.text+0x80>
  403e0b:	89 43 08             	mov    %eax,0x8(%ebx)
  403e0e:	81 c4 54 01 00 00    	add    $0x154,%esp
  403e14:	89 f0                	mov    %esi,%eax
  403e16:	5b                   	pop    %ebx
  403e17:	5e                   	pop    %esi
  403e18:	c3                   	ret    
  403e19:	8d b4 26 00 00 00 00 	lea    0x0(%esi,%eiz,1),%esi
  403e20:	c7 43 08 18 00 00 00 	movl   $0x18,0x8(%ebx)
  403e27:	81 c4 54 01 00 00    	add    $0x154,%esp
  403e2d:	89 f0                	mov    %esi,%eax
  403e2f:	5b                   	pop    %ebx
  403e30:	5e                   	pop    %esi
  403e31:	c3                   	ret    
  403e32:	8d b6 00 00 00 00    	lea    0x0(%esi),%esi
  403e38:	e8 3f 08 00 00       	call   40467c <_GetLastError@0>
  403e3d:	89 c3                	mov    %eax,%ebx
  403e3f:	e8 c8 07 00 00       	call   40460c <__errno>
  403e44:	89 18                	mov    %ebx,(%eax)
  403e46:	83 fb 03             	cmp    $0x3,%ebx
  403e49:	74 24                	je     403e6f <.text+0xcf>
  403e4b:	e8 bc 07 00 00       	call   40460c <__errno>
  403e50:	81 38 0b 01 00 00    	cmpl   $0x10b,(%eax)
  403e56:	74 24                	je     403e7c <.text+0xdc>
  403e58:	e8 af 07 00 00       	call   40460c <__errno>
  403e5d:	83 38 02             	cmpl   $0x2,(%eax)
  403e60:	74 ac                	je     403e0e <.text+0x6e>
  403e62:	e8 a5 07 00 00       	call   40460c <__errno>
  403e67:	c7 00 16 00 00 00    	movl   $0x16,(%eax)
  403e6d:	eb 9f                	jmp    403e0e <.text+0x6e>
  403e6f:	e8 98 07 00 00       	call   40460c <__errno>
  403e74:	c7 00 02 00 00 00    	movl   $0x2,(%eax)
  403e7a:	eb 92                	jmp    403e0e <.text+0x6e>
  403e7c:	e8 8b 07 00 00       	call   40460c <__errno>
  403e81:	c7 00 14 00 00 00    	movl   $0x14,(%eax)
  403e87:	eb 85                	jmp    403e0e <.text+0x6e>
  403e89:	8d b4 26 00 00 00 00 	lea    0x0(%esi,%eiz,1),%esi
  403e90:	56                   	push   %esi
  403e91:	53                   	push   %ebx
  403e92:	89 d3                	mov    %edx,%ebx
  403e94:	81 ec 54 01 00 00    	sub    $0x154,%esp
  403e9a:	8d 54 24 10          	lea    0x10(%esp),%edx
  403e9e:	89 04 24             	mov    %eax,(%esp)
  403ea1:	89 54 24 04          	mov    %edx,0x4(%esp)
  403ea5:	e8 ea 07 00 00       	call   404694 <_FindNextFileA@8>
  403eaa:	83 ec 08             	sub    $0x8,%esp
  403ead:	89 c6                	mov    %eax,%esi
  403eaf:	85 c0                	test   %eax,%eax
  403eb1:	74 75                	je     403f28 <.text+0x188>
  403eb3:	31 c0                	xor    %eax,%eax
  403eb5:	8d 4b 0c             	lea    0xc(%ebx),%ecx
  403eb8:	66 89 43 06          	mov    %ax,0x6(%ebx)
  403ebc:	0f b6 44 24 3c       	movzbl 0x3c(%esp),%eax
  403ec1:	88 43 0c             	mov    %al,0xc(%ebx)
  403ec4:	84 c0                	test   %al,%al
  403ec6:	74 28                	je     403ef0 <.text+0x150>
  403ec8:	31 c0                	xor    %eax,%eax
  403eca:	eb 08                	jmp    403ed4 <.text+0x134>
  403ecc:	8d 74 26 00          	lea    0x0(%esi,%eiz,1),%esi
  403ed0:	0f b7 43 06          	movzwl 0x6(%ebx),%eax
  403ed4:	83 c0 01             	add    $0x1,%eax
  403ed7:	66 89 43 06          	mov    %ax,0x6(%ebx)
  403edb:	66 3d 04 01          	cmp    $0x104,%ax
  403edf:	0f b7 c0             	movzwl %ax,%eax
  403ee2:	0f b6 44 04 3c       	movzbl 0x3c(%esp,%eax,1),%eax
  403ee7:	83 d1 00             	adc    $0x0,%ecx
  403eea:	88 01                	mov    %al,(%ecx)
  403eec:	84 c0                	test   %al,%al
  403eee:	75 e0                	jne    403ed0 <.text+0x130>
  403ef0:	8b 44 24 10          	mov    0x10(%esp),%eax
  403ef4:	24 58                	and    $0x58,%al
  403ef6:	83 f8 10             	cmp    $0x10,%eax
  403ef9:	77 15                	ja     403f10 <.text+0x170>
  403efb:	89 43 08             	mov    %eax,0x8(%ebx)
  403efe:	81 c4 54 01 00 00    	add    $0x154,%esp
  403f04:	89 f0                	mov    %esi,%eax
  403f06:	5b                   	pop    %ebx
  403f07:	5e                   	pop    %esi
  403f08:	c3                   	ret    
  403f09:	8d b4 26 00 00 00 00 	lea    0x0(%esi,%eiz,1),%esi
  403f10:	c7 43 08 18 00 00 00 	movl   $0x18,0x8(%ebx)
  403f17:	81 c4 54 01 00 00    	add    $0x154,%esp
  403f1d:	89 f0                	mov    %esi,%eax
  403f1f:	5b                   	pop    %ebx
  403f20:	5e                   	pop    %esi
  403f21:	c3                   	ret    
  403f22:	8d b6 00 00 00 00    	lea    0x0(%esi),%esi
  403f28:	e8 4f 07 00 00       	call   40467c <_GetLastError@0>
  403f2d:	83 f8 12             	cmp    $0x12,%eax
  403f30:	74 cc                	je     403efe <.text+0x15e>
  403f32:	e8 d5 06 00 00       	call   40460c <__errno>
  403f37:	c7 00 02 00 00 00    	movl   $0x2,(%eax)
  403f3d:	81 c4 54 01 00 00    	add    $0x154,%esp
  403f43:	89 f0                	mov    %esi,%eax
  403f45:	5b                   	pop    %ebx
  403f46:	5e                   	pop    %esi
  403f47:	c3                   	ret    
  403f48:	8d b4 26 00 00 00 00 	lea    0x0(%esi,%eiz,1),%esi
  403f4f:	90                   	nop

00403f50 <___mingw_opendir>:
  403f50:	55                   	push   %ebp
  403f51:	57                   	push   %edi
  403f52:	56                   	push   %esi
  403f53:	53                   	push   %ebx
  403f54:	81 ec 2c 01 00 00    	sub    $0x12c,%esp
  403f5a:	8b 84 24 40 01 00 00 	mov    0x140(%esp),%eax
  403f61:	85 c0                	test   %eax,%eax
  403f63:	0f 84 af 01 00 00    	je     404118 <___mingw_opendir+0x1c8>
  403f69:	80 38 00             	cmpb   $0x0,(%eax)
  403f6c:	0f 84 86 01 00 00    	je     4040f8 <___mingw_opendir+0x1a8>
  403f72:	8d 74 24 1c          	lea    0x1c(%esp),%esi
  403f76:	c7 44 24 08 04 01 00 	movl   $0x104,0x8(%esp)
  403f7d:	00 
  403f7e:	89 44 24 04          	mov    %eax,0x4(%esp)
  403f82:	89 34 24             	mov    %esi,(%esp)
  403f85:	e8 7a 06 00 00       	call   404604 <__fullpath>
  403f8a:	80 7c 24 1c 00       	cmpb   $0x0,0x1c(%esp)
  403f8f:	89 f2                	mov    %esi,%edx
  403f91:	74 4d                	je     403fe0 <___mingw_opendir+0x90>
  403f93:	8b 0a                	mov    (%edx),%ecx
  403f95:	83 c2 04             	add    $0x4,%edx
  403f98:	8d 81 ff fe fe fe    	lea    -0x1010101(%ecx),%eax
  403f9e:	f7 d1                	not    %ecx
  403fa0:	21 c8                	and    %ecx,%eax
  403fa2:	25 80 80 80 80       	and    $0x80808080,%eax
  403fa7:	74 ea                	je     403f93 <___mingw_opendir+0x43>
  403fa9:	a9 80 80 00 00       	test   $0x8080,%eax
  403fae:	0f 84 34 01 00 00    	je     4040e8 <___mingw_opendir+0x198>
  403fb4:	89 c3                	mov    %eax,%ebx
  403fb6:	00 c3                	add    %al,%bl
  403fb8:	83 da 03             	sbb    $0x3,%edx
  403fbb:	29 f2                	sub    %esi,%edx
  403fbd:	0f b6 4c 14 1b       	movzbl 0x1b(%esp,%edx,1),%ecx
  403fc2:	8d 04 16             	lea    (%esi,%edx,1),%eax
  403fc5:	80 f9 2f             	cmp    $0x2f,%cl
  403fc8:	74 40                	je     40400a <___mingw_opendir+0xba>
  403fca:	80 f9 5c             	cmp    $0x5c,%cl
  403fcd:	74 3b                	je     40400a <___mingw_opendir+0xba>
  403fcf:	b9 5c 00 00 00       	mov    $0x5c,%ecx
  403fd4:	66 89 08             	mov    %cx,(%eax)
  403fd7:	8d 44 16 01          	lea    0x1(%esi,%edx,1),%eax
  403fdb:	eb 2d                	jmp    40400a <___mingw_opendir+0xba>
  403fdd:	8d 76 00             	lea    0x0(%esi),%esi
  403fe0:	8b 0a                	mov    (%edx),%ecx
  403fe2:	83 c2 04             	add    $0x4,%edx
  403fe5:	8d 81 ff fe fe fe    	lea    -0x1010101(%ecx),%eax
  403feb:	f7 d1                	not    %ecx
  403fed:	21 c8                	and    %ecx,%eax
  403fef:	25 80 80 80 80       	and    $0x80808080,%eax
  403ff4:	74 ea                	je     403fe0 <___mingw_opendir+0x90>
  403ff6:	a9 80 80 00 00       	test   $0x8080,%eax
  403ffb:	0f 84 d7 00 00 00    	je     4040d8 <___mingw_opendir+0x188>
  404001:	89 c3                	mov    %eax,%ebx
  404003:	00 c3                	add    %al,%bl
  404005:	89 d0                	mov    %edx,%eax
  404007:	83 d8 03             	sbb    $0x3,%eax
  40400a:	ba 2a 00 00 00       	mov    $0x2a,%edx
  40400f:	89 f3                	mov    %esi,%ebx
  404011:	66 89 10             	mov    %dx,(%eax)
  404014:	8b 13                	mov    (%ebx),%edx
  404016:	83 c3 04             	add    $0x4,%ebx
  404019:	8d 82 ff fe fe fe    	lea    -0x1010101(%edx),%eax
  40401f:	f7 d2                	not    %edx
  404021:	21 d0                	and    %edx,%eax
  404023:	25 80 80 80 80       	and    $0x80808080,%eax
  404028:	74 ea                	je     404014 <___mingw_opendir+0xc4>
  40402a:	a9 80 80 00 00       	test   $0x8080,%eax
  40402f:	75 06                	jne    404037 <___mingw_opendir+0xe7>
  404031:	c1 e8 10             	shr    $0x10,%eax
  404034:	83 c3 02             	add    $0x2,%ebx
  404037:	89 c1                	mov    %eax,%ecx
  404039:	00 c1                	add    %al,%cl
  40403b:	83 db 03             	sbb    $0x3,%ebx
  40403e:	29 f3                	sub    %esi,%ebx
  404040:	8d 83 1c 01 00 00    	lea    0x11c(%ebx),%eax
  404046:	89 04 24             	mov    %eax,(%esp)
  404049:	e8 7e 05 00 00       	call   4045cc <_malloc>
  40404e:	89 c5                	mov    %eax,%ebp
  404050:	85 c0                	test   %eax,%eax
  404052:	0f 84 e7 00 00 00    	je     40413f <___mingw_opendir+0x1ef>
  404058:	8d 4b 01             	lea    0x1(%ebx),%ecx
  40405b:	8d 80 18 01 00 00    	lea    0x118(%eax),%eax
  404061:	83 f9 04             	cmp    $0x4,%ecx
  404064:	72 52                	jb     4040b8 <___mingw_opendir+0x168>
  404066:	8b 54 0c 18          	mov    0x18(%esp,%ecx,1),%edx
  40406a:	c1 eb 02             	shr    $0x2,%ebx
  40406d:	89 c7                	mov    %eax,%edi
  40406f:	89 54 08 fc          	mov    %edx,-0x4(%eax,%ecx,1)
  404073:	89 d9                	mov    %ebx,%ecx
  404075:	f3 a5                	rep movsl %ds:(%esi),%es:(%edi)
  404077:	89 ea                	mov    %ebp,%edx
  404079:	e8 22 fd ff ff       	call   403da0 <.text>
  40407e:	89 85 10 01 00 00    	mov    %eax,0x110(%ebp)
  404084:	83 f8 ff             	cmp    $0xffffffff,%eax
  404087:	0f 84 a3 00 00 00    	je     404130 <___mingw_opendir+0x1e0>
  40408d:	b8 10 01 00 00       	mov    $0x110,%eax
  404092:	c7 45 00 00 00 00 00 	movl   $0x0,0x0(%ebp)
  404099:	c7 85 14 01 00 00 00 	movl   $0x0,0x114(%ebp)
  4040a0:	00 00 00 
  4040a3:	66 89 45 04          	mov    %ax,0x4(%ebp)
  4040a7:	81 c4 2c 01 00 00    	add    $0x12c,%esp
  4040ad:	89 e8                	mov    %ebp,%eax
  4040af:	5b                   	pop    %ebx
  4040b0:	5e                   	pop    %esi
  4040b1:	5f                   	pop    %edi
  4040b2:	5d                   	pop    %ebp
  4040b3:	c3                   	ret    
  4040b4:	8d 74 26 00          	lea    0x0(%esi,%eiz,1),%esi
  4040b8:	85 c9                	test   %ecx,%ecx
  4040ba:	74 bb                	je     404077 <___mingw_opendir+0x127>
  4040bc:	0f b6 16             	movzbl (%esi),%edx
  4040bf:	88 10                	mov    %dl,(%eax)
  4040c1:	f6 c1 02             	test   $0x2,%cl
  4040c4:	74 b1                	je     404077 <___mingw_opendir+0x127>
  4040c6:	0f b7 54 0e fe       	movzwl -0x2(%esi,%ecx,1),%edx
  4040cb:	66 89 54 08 fe       	mov    %dx,-0x2(%eax,%ecx,1)
  4040d0:	eb a5                	jmp    404077 <___mingw_opendir+0x127>
  4040d2:	8d b6 00 00 00 00    	lea    0x0(%esi),%esi
  4040d8:	c1 e8 10             	shr    $0x10,%eax
  4040db:	83 c2 02             	add    $0x2,%edx
  4040de:	e9 1e ff ff ff       	jmp    404001 <___mingw_opendir+0xb1>
  4040e3:	8d 74 26 00          	lea    0x0(%esi,%eiz,1),%esi
  4040e7:	90                   	nop
  4040e8:	c1 e8 10             	shr    $0x10,%eax
  4040eb:	83 c2 02             	add    $0x2,%edx
  4040ee:	e9 c1 fe ff ff       	jmp    403fb4 <___mingw_opendir+0x64>
  4040f3:	8d 74 26 00          	lea    0x0(%esi,%eiz,1),%esi
  4040f7:	90                   	nop
  4040f8:	e8 0f 05 00 00       	call   40460c <__errno>
  4040fd:	31 ed                	xor    %ebp,%ebp
  4040ff:	c7 00 02 00 00 00    	movl   $0x2,(%eax)
  404105:	81 c4 2c 01 00 00    	add    $0x12c,%esp
  40410b:	89 e8                	mov    %ebp,%eax
  40410d:	5b                   	pop    %ebx
  40410e:	5e                   	pop    %esi
  40410f:	5f                   	pop    %edi
  404110:	5d                   	pop    %ebp
  404111:	c3                   	ret    
  404112:	8d b6 00 00 00 00    	lea    0x0(%esi),%esi
  404118:	e8 ef 04 00 00       	call   40460c <__errno>
  40411d:	31 ed                	xor    %ebp,%ebp
  40411f:	c7 00 16 00 00 00    	movl   $0x16,(%eax)
  404125:	eb 80                	jmp    4040a7 <___mingw_opendir+0x157>
  404127:	8d b4 26 00 00 00 00 	lea    0x0(%esi,%eiz,1),%esi
  40412e:	66 90                	xchg   %ax,%ax
  404130:	89 2c 24             	mov    %ebp,(%esp)
  404133:	31 ed                	xor    %ebp,%ebp
  404135:	e8 16 e7 ff ff       	call   402850 <___mingw_aligned_free>
  40413a:	e9 68 ff ff ff       	jmp    4040a7 <___mingw_opendir+0x157>
  40413f:	e8 c8 04 00 00       	call   40460c <__errno>
  404144:	c7 00 0c 00 00 00    	movl   $0xc,(%eax)
  40414a:	e9 58 ff ff ff       	jmp    4040a7 <___mingw_opendir+0x157>
  40414f:	90                   	nop

00404150 <___mingw_readdir>:
  404150:	53                   	push   %ebx
  404151:	83 ec 08             	sub    $0x8,%esp
  404154:	8b 44 24 10          	mov    0x10(%esp),%eax
  404158:	85 c0                	test   %eax,%eax
  40415a:	74 34                	je     404190 <___mingw_readdir+0x40>
  40415c:	8b 90 14 01 00 00    	mov    0x114(%eax),%edx
  404162:	89 c3                	mov    %eax,%ebx
  404164:	8d 4a 01             	lea    0x1(%edx),%ecx
  404167:	89 88 14 01 00 00    	mov    %ecx,0x114(%eax)
  40416d:	85 d2                	test   %edx,%edx
  40416f:	7e 16                	jle    404187 <___mingw_readdir+0x37>
  404171:	8b 80 10 01 00 00    	mov    0x110(%eax),%eax
  404177:	89 da                	mov    %ebx,%edx
  404179:	e8 12 fd ff ff       	call   403e90 <.text+0xf0>
  40417e:	83 f8 01             	cmp    $0x1,%eax
  404181:	19 c0                	sbb    %eax,%eax
  404183:	f7 d0                	not    %eax
  404185:	21 c3                	and    %eax,%ebx
  404187:	83 c4 08             	add    $0x8,%esp
  40418a:	89 d8                	mov    %ebx,%eax
  40418c:	5b                   	pop    %ebx
  40418d:	c3                   	ret    
  40418e:	66 90                	xchg   %ax,%ax
  404190:	e8 77 04 00 00       	call   40460c <__errno>
  404195:	31 db                	xor    %ebx,%ebx
  404197:	c7 00 09 00 00 00    	movl   $0x9,(%eax)
  40419d:	eb e8                	jmp    404187 <___mingw_readdir+0x37>
  40419f:	90                   	nop

004041a0 <___mingw_closedir>:
  4041a0:	53                   	push   %ebx
  4041a1:	83 ec 18             	sub    $0x18,%esp
  4041a4:	8b 5c 24 20          	mov    0x20(%esp),%ebx
  4041a8:	85 db                	test   %ebx,%ebx
  4041aa:	74 24                	je     4041d0 <___mingw_closedir+0x30>
  4041ac:	8b 83 10 01 00 00    	mov    0x110(%ebx),%eax
  4041b2:	89 04 24             	mov    %eax,(%esp)
  4041b5:	e8 ea 04 00 00       	call   4046a4 <_FindClose@4>
  4041ba:	83 ec 04             	sub    $0x4,%esp
  4041bd:	85 c0                	test   %eax,%eax
  4041bf:	74 0f                	je     4041d0 <___mingw_closedir+0x30>
  4041c1:	89 1c 24             	mov    %ebx,(%esp)
  4041c4:	e8 87 e6 ff ff       	call   402850 <___mingw_aligned_free>
  4041c9:	31 c0                	xor    %eax,%eax
  4041cb:	83 c4 18             	add    $0x18,%esp
  4041ce:	5b                   	pop    %ebx
  4041cf:	c3                   	ret    
  4041d0:	e8 37 04 00 00       	call   40460c <__errno>
  4041d5:	c7 00 09 00 00 00    	movl   $0x9,(%eax)
  4041db:	b8 ff ff ff ff       	mov    $0xffffffff,%eax
  4041e0:	eb e9                	jmp    4041cb <___mingw_closedir+0x2b>
  4041e2:	8d b4 26 00 00 00 00 	lea    0x0(%esi,%eiz,1),%esi
  4041e9:	8d b4 26 00 00 00 00 	lea    0x0(%esi,%eiz,1),%esi

004041f0 <___mingw_rewinddir>:
  4041f0:	53                   	push   %ebx
  4041f1:	83 ec 18             	sub    $0x18,%esp
  4041f4:	8b 5c 24 20          	mov    0x20(%esp),%ebx
  4041f8:	85 db                	test   %ebx,%ebx
  4041fa:	74 15                	je     404211 <___mingw_rewinddir+0x21>
  4041fc:	8b 83 10 01 00 00    	mov    0x110(%ebx),%eax
  404202:	89 04 24             	mov    %eax,(%esp)
  404205:	e8 9a 04 00 00       	call   4046a4 <_FindClose@4>
  40420a:	83 ec 04             	sub    $0x4,%esp
  40420d:	85 c0                	test   %eax,%eax
  40420f:	75 17                	jne    404228 <___mingw_rewinddir+0x38>
  404211:	e8 f6 03 00 00       	call   40460c <__errno>
  404216:	c7 00 09 00 00 00    	movl   $0x9,(%eax)
  40421c:	83 c4 18             	add    $0x18,%esp
  40421f:	5b                   	pop    %ebx
  404220:	c3                   	ret    
  404221:	8d b4 26 00 00 00 00 	lea    0x0(%esi,%eiz,1),%esi
  404228:	8d 83 18 01 00 00    	lea    0x118(%ebx),%eax
  40422e:	89 da                	mov    %ebx,%edx
  404230:	e8 6b fb ff ff       	call   403da0 <.text>
  404235:	89 83 10 01 00 00    	mov    %eax,0x110(%ebx)
  40423b:	83 f8 ff             	cmp    $0xffffffff,%eax
  40423e:	74 dc                	je     40421c <___mingw_rewinddir+0x2c>
  404240:	c7 83 14 01 00 00 00 	movl   $0x0,0x114(%ebx)
  404247:	00 00 00 
  40424a:	83 c4 18             	add    $0x18,%esp
  40424d:	5b                   	pop    %ebx
  40424e:	c3                   	ret    
  40424f:	90                   	nop

00404250 <___mingw_telldir>:
  404250:	83 ec 0c             	sub    $0xc,%esp
  404253:	8b 44 24 10          	mov    0x10(%esp),%eax
  404257:	85 c0                	test   %eax,%eax
  404259:	74 0a                	je     404265 <___mingw_telldir+0x15>
  40425b:	8b 80 14 01 00 00    	mov    0x114(%eax),%eax
  404261:	83 c4 0c             	add    $0xc,%esp
  404264:	c3                   	ret    
  404265:	e8 a2 03 00 00       	call   40460c <__errno>
  40426a:	c7 00 09 00 00 00    	movl   $0x9,(%eax)
  404270:	b8 ff ff ff ff       	mov    $0xffffffff,%eax
  404275:	eb ea                	jmp    404261 <___mingw_telldir+0x11>
  404277:	8d b4 26 00 00 00 00 	lea    0x0(%esi,%eiz,1),%esi
  40427e:	66 90                	xchg   %ax,%ax

00404280 <___mingw_seekdir>:
  404280:	56                   	push   %esi
  404281:	53                   	push   %ebx
  404282:	83 ec 14             	sub    $0x14,%esp
  404285:	8b 74 24 24          	mov    0x24(%esp),%esi
  404289:	8b 5c 24 20          	mov    0x20(%esp),%ebx
  40428d:	85 f6                	test   %esi,%esi
  40428f:	78 4f                	js     4042e0 <___mingw_seekdir+0x60>
  404291:	89 1c 24             	mov    %ebx,(%esp)
  404294:	e8 57 ff ff ff       	call   4041f0 <___mingw_rewinddir>
  404299:	85 f6                	test   %esi,%esi
  40429b:	74 37                	je     4042d4 <___mingw_seekdir+0x54>
  40429d:	83 bb 10 01 00 00 ff 	cmpl   $0xffffffff,0x110(%ebx)
  4042a4:	75 1b                	jne    4042c1 <___mingw_seekdir+0x41>
  4042a6:	eb 2c                	jmp    4042d4 <___mingw_seekdir+0x54>
  4042a8:	8d b4 26 00 00 00 00 	lea    0x0(%esi,%eiz,1),%esi
  4042af:	90                   	nop
  4042b0:	8b 83 10 01 00 00    	mov    0x110(%ebx),%eax
  4042b6:	89 da                	mov    %ebx,%edx
  4042b8:	e8 d3 fb ff ff       	call   403e90 <.text+0xf0>
  4042bd:	85 c0                	test   %eax,%eax
  4042bf:	74 13                	je     4042d4 <___mingw_seekdir+0x54>
  4042c1:	8b 83 14 01 00 00    	mov    0x114(%ebx),%eax
  4042c7:	83 c0 01             	add    $0x1,%eax
  4042ca:	89 83 14 01 00 00    	mov    %eax,0x114(%ebx)
  4042d0:	39 f0                	cmp    %esi,%eax
  4042d2:	7c dc                	jl     4042b0 <___mingw_seekdir+0x30>
  4042d4:	83 c4 14             	add    $0x14,%esp
  4042d7:	5b                   	pop    %ebx
  4042d8:	5e                   	pop    %esi
  4042d9:	c3                   	ret    
  4042da:	8d b6 00 00 00 00    	lea    0x0(%esi),%esi
  4042e0:	e8 27 03 00 00       	call   40460c <__errno>
  4042e5:	c7 00 16 00 00 00    	movl   $0x16,(%eax)
  4042eb:	83 c4 14             	add    $0x14,%esp
  4042ee:	5b                   	pop    %ebx
  4042ef:	5e                   	pop    %esi
  4042f0:	c3                   	ret    
  4042f1:	90                   	nop
  4042f2:	90                   	nop
  4042f3:	90                   	nop
  4042f4:	90                   	nop
  4042f5:	90                   	nop
  4042f6:	90                   	nop
  4042f7:	90                   	nop
  4042f8:	90                   	nop
  4042f9:	90                   	nop
  4042fa:	90                   	nop
  4042fb:	90                   	nop
  4042fc:	90                   	nop
  4042fd:	90                   	nop
  4042fe:	90                   	nop
  4042ff:	90                   	nop

00404300 <___mingw_memalign_base>:
  404300:	55                   	push   %ebp
  404301:	57                   	push   %edi
  404302:	56                   	push   %esi
  404303:	53                   	push   %ebx
  404304:	83 ec 08             	sub    $0x8,%esp
  404307:	8b 44 24 1c          	mov    0x1c(%esp),%eax
  40430b:	85 c0                	test   %eax,%eax
  40430d:	0f 84 83 00 00 00    	je     404396 <___mingw_memalign_base+0x96>
  404313:	8b 35 70 80 40 00    	mov    0x408070,%esi
  404319:	85 f6                	test   %esi,%esi
  40431b:	74 79                	je     404396 <___mingw_memalign_base+0x96>
  40431d:	8d 56 08             	lea    0x8(%esi),%edx
  404320:	39 c2                	cmp    %eax,%edx
  404322:	77 72                	ja     404396 <___mingw_memalign_base+0x96>
  404324:	8d 50 fc             	lea    -0x4(%eax),%edx
  404327:	8b 7c 24 20          	mov    0x20(%esp),%edi
  40432b:	83 e2 fc             	and    $0xfffffffc,%edx
  40432e:	8b 12                	mov    (%edx),%edx
  404330:	89 d3                	mov    %edx,%ebx
  404332:	89 d1                	mov    %edx,%ecx
  404334:	83 e3 03             	and    $0x3,%ebx
  404337:	83 e1 fc             	and    $0xfffffffc,%ecx
  40433a:	89 5f 04             	mov    %ebx,0x4(%edi)
  40433d:	89 0f                	mov    %ecx,(%edi)
  40433f:	39 ce                	cmp    %ecx,%esi
  404341:	77 53                	ja     404396 <___mingw_memalign_base+0x96>
  404343:	8d 70 f8             	lea    -0x8(%eax),%esi
  404346:	39 f1                	cmp    %esi,%ecx
  404348:	77 4c                	ja     404396 <___mingw_memalign_base+0x96>
  40434a:	89 4c 24 04          	mov    %ecx,0x4(%esp)
  40434e:	f6 c2 01             	test   $0x1,%dl
  404351:	74 4d                	je     4043a0 <___mingw_memalign_base+0xa0>
  404353:	8b 39                	mov    (%ecx),%edi
  404355:	89 fd                	mov    %edi,%ebp
  404357:	8d 77 07             	lea    0x7(%edi),%esi
  40435a:	f7 dd                	neg    %ebp
  40435c:	89 2c 24             	mov    %ebp,(%esp)
  40435f:	8b 6c 24 20          	mov    0x20(%esp),%ebp
  404363:	89 7d 08             	mov    %edi,0x8(%ebp)
  404366:	83 e2 02             	and    $0x2,%edx
  404369:	74 0b                	je     404376 <___mingw_memalign_base+0x76>
  40436b:	8d 53 01             	lea    0x1(%ebx),%edx
  40436e:	c1 ea 02             	shr    $0x2,%edx
  404371:	8b 14 91             	mov    (%ecx,%edx,4),%edx
  404374:	01 d1                	add    %edx,%ecx
  404376:	8b 6c 24 20          	mov    0x20(%esp),%ebp
  40437a:	89 55 0c             	mov    %edx,0xc(%ebp)
  40437d:	83 fb 03             	cmp    $0x3,%ebx
  404380:	75 03                	jne    404385 <___mingw_memalign_base+0x85>
  404382:	8d 77 0b             	lea    0xb(%edi),%esi
  404385:	8b 2c 24             	mov    (%esp),%ebp
  404388:	01 f1                	add    %esi,%ecx
  40438a:	21 cd                	and    %ecx,%ebp
  40438c:	29 d5                	sub    %edx,%ebp
  40438e:	39 e8                	cmp    %ebp,%eax
  404390:	75 04                	jne    404396 <___mingw_memalign_base+0x96>
  404392:	8b 44 24 04          	mov    0x4(%esp),%eax
  404396:	83 c4 08             	add    $0x8,%esp
  404399:	5b                   	pop    %ebx
  40439a:	5e                   	pop    %esi
  40439b:	5f                   	pop    %edi
  40439c:	5d                   	pop    %ebp
  40439d:	c3                   	ret    
  40439e:	66 90                	xchg   %ax,%ax
  4043a0:	c7 04 24 f8 ff ff ff 	movl   $0xfffffff8,(%esp)
  4043a7:	be 0f 00 00 00       	mov    $0xf,%esi
  4043ac:	bf 08 00 00 00       	mov    $0x8,%edi
  4043b1:	eb ac                	jmp    40435f <___mingw_memalign_base+0x5f>
  4043b3:	90                   	nop
  4043b4:	90                   	nop
  4043b5:	90                   	nop
  4043b6:	90                   	nop
  4043b7:	90                   	nop
  4043b8:	90                   	nop
  4043b9:	90                   	nop
  4043ba:	90                   	nop
  4043bb:	90                   	nop
  4043bc:	90                   	nop
  4043bd:	90                   	nop
  4043be:	90                   	nop
  4043bf:	90                   	nop

004043c0 <___mingw_realloc>:
  4043c0:	57                   	push   %edi
  4043c1:	56                   	push   %esi
  4043c2:	53                   	push   %ebx
  4043c3:	83 ec 20             	sub    $0x20,%esp
  4043c6:	8b 5c 24 30          	mov    0x30(%esp),%ebx
  4043ca:	8b 74 24 34          	mov    0x34(%esp),%esi
  4043ce:	85 db                	test   %ebx,%ebx
  4043d0:	74 3a                	je     40440c <___mingw_realloc+0x4c>
  4043d2:	8d 7c 24 10          	lea    0x10(%esp),%edi
  4043d6:	89 1c 24             	mov    %ebx,(%esp)
  4043d9:	89 7c 24 04          	mov    %edi,0x4(%esp)
  4043dd:	e8 1e ff ff ff       	call   404300 <___mingw_memalign_base>
  4043e2:	39 c3                	cmp    %eax,%ebx
  4043e4:	74 26                	je     40440c <___mingw_realloc+0x4c>
  4043e6:	85 f6                	test   %esi,%esi
  4043e8:	74 1e                	je     404408 <___mingw_realloc+0x48>
  4043ea:	39 74 24 1c          	cmp    %esi,0x1c(%esp)
  4043ee:	72 30                	jb     404420 <___mingw_realloc+0x60>
  4043f0:	e8 17 02 00 00       	call   40460c <__errno>
  4043f5:	c7 00 16 00 00 00    	movl   $0x16,(%eax)
  4043fb:	83 c4 20             	add    $0x20,%esp
  4043fe:	31 c0                	xor    %eax,%eax
  404400:	5b                   	pop    %ebx
  404401:	5e                   	pop    %esi
  404402:	5f                   	pop    %edi
  404403:	c3                   	ret    
  404404:	8d 74 26 00          	lea    0x0(%esi,%eiz,1),%esi
  404408:	8b 5c 24 10          	mov    0x10(%esp),%ebx
  40440c:	89 74 24 04          	mov    %esi,0x4(%esp)
  404410:	89 1c 24             	mov    %ebx,(%esp)
  404413:	ff 15 8c 92 40 00    	call   *0x40928c
  404419:	83 c4 20             	add    $0x20,%esp
  40441c:	5b                   	pop    %ebx
  40441d:	5e                   	pop    %esi
  40441e:	5f                   	pop    %edi
  40441f:	c3                   	ret    
  404420:	89 74 24 08          	mov    %esi,0x8(%esp)
  404424:	89 7c 24 04          	mov    %edi,0x4(%esp)
  404428:	89 1c 24             	mov    %ebx,(%esp)
  40442b:	e8 10 00 00 00       	call   404440 <___mingw_memalign_realloc>
  404430:	83 c4 20             	add    $0x20,%esp
  404433:	5b                   	pop    %ebx
  404434:	5e                   	pop    %esi
  404435:	5f                   	pop    %edi
  404436:	c3                   	ret    
  404437:	90                   	nop
  404438:	90                   	nop
  404439:	90                   	nop
  40443a:	90                   	nop
  40443b:	90                   	nop
  40443c:	90                   	nop
  40443d:	90                   	nop
  40443e:	90                   	nop
  40443f:	90                   	nop

00404440 <___mingw_memalign_realloc>:
  404440:	55                   	push   %ebp
  404441:	57                   	push   %edi
  404442:	56                   	push   %esi
  404443:	53                   	push   %ebx
  404444:	83 ec 1c             	sub    $0x1c,%esp
  404447:	8b 74 24 34          	mov    0x34(%esp),%esi
  40444b:	8b 06                	mov    (%esi),%eax
  40444d:	89 04 24             	mov    %eax,(%esp)
  404450:	e8 9f 01 00 00       	call   4045f4 <__msize>
  404455:	8b 56 08             	mov    0x8(%esi),%edx
  404458:	89 c7                	mov    %eax,%edi
  40445a:	8b 46 04             	mov    0x4(%esi),%eax
  40445d:	8d 5a 07             	lea    0x7(%edx),%ebx
  404460:	83 e0 03             	and    $0x3,%eax
  404463:	83 f8 03             	cmp    $0x3,%eax
  404466:	75 03                	jne    40446b <___mingw_memalign_realloc+0x2b>
  404468:	8d 5a 0b             	lea    0xb(%edx),%ebx
  40446b:	8b 44 24 38          	mov    0x38(%esp),%eax
  40446f:	01 d8                	add    %ebx,%eax
  404471:	89 44 24 04          	mov    %eax,0x4(%esp)
  404475:	8b 06                	mov    (%esi),%eax
  404477:	89 04 24             	mov    %eax,(%esp)
  40447a:	ff 15 8c 92 40 00    	call   *0x40928c
  404480:	8b 16                	mov    (%esi),%edx
  404482:	39 c2                	cmp    %eax,%edx
  404484:	0f 84 86 00 00 00    	je     404510 <___mingw_memalign_realloc+0xd0>
  40448a:	31 ed                	xor    %ebp,%ebp
  40448c:	85 c0                	test   %eax,%eax
  40448e:	74 59                	je     4044e9 <___mingw_memalign_realloc+0xa9>
  404490:	8b 4c 24 30          	mov    0x30(%esp),%ecx
  404494:	8b 2d 70 80 40 00    	mov    0x408070,%ebp
  40449a:	29 d1                	sub    %edx,%ecx
  40449c:	85 ed                	test   %ebp,%ebp
  40449e:	75 58                	jne    4044f8 <___mingw_memalign_realloc+0xb8>
  4044a0:	a3 70 80 40 00       	mov    %eax,0x408070
  4044a5:	8b 6e 04             	mov    0x4(%esi),%ebp
  4044a8:	03 5e 0c             	add    0xc(%esi),%ebx
  4044ab:	01 c3                	add    %eax,%ebx
  4044ad:	09 c5                	or     %eax,%ebp
  4044af:	01 c8                	add    %ecx,%eax
  4044b1:	89 2e                	mov    %ebp,(%esi)
  4044b3:	8b 6e 08             	mov    0x8(%esi),%ebp
  4044b6:	f7 dd                	neg    %ebp
  4044b8:	21 eb                	and    %ebp,%ebx
  4044ba:	2b 5e 0c             	sub    0xc(%esi),%ebx
  4044bd:	89 dd                	mov    %ebx,%ebp
  4044bf:	39 c3                	cmp    %eax,%ebx
  4044c1:	74 1c                	je     4044df <___mingw_memalign_realloc+0x9f>
  4044c3:	2b 54 24 30          	sub    0x30(%esp),%edx
  4044c7:	01 d7                	add    %edx,%edi
  4044c9:	3b 7c 24 38          	cmp    0x38(%esp),%edi
  4044cd:	77 31                	ja     404500 <___mingw_memalign_realloc+0xc0>
  4044cf:	89 7c 24 08          	mov    %edi,0x8(%esp)
  4044d3:	89 44 24 04          	mov    %eax,0x4(%esp)
  4044d7:	89 1c 24             	mov    %ebx,(%esp)
  4044da:	e8 d5 00 00 00       	call   4045b4 <_memmove>
  4044df:	8b 06                	mov    (%esi),%eax
  4044e1:	83 eb 04             	sub    $0x4,%ebx
  4044e4:	83 e3 fc             	and    $0xfffffffc,%ebx
  4044e7:	89 03                	mov    %eax,(%ebx)
  4044e9:	83 c4 1c             	add    $0x1c,%esp
  4044ec:	89 e8                	mov    %ebp,%eax
  4044ee:	5b                   	pop    %ebx
  4044ef:	5e                   	pop    %esi
  4044f0:	5f                   	pop    %edi
  4044f1:	5d                   	pop    %ebp
  4044f2:	c3                   	ret    
  4044f3:	8d 74 26 00          	lea    0x0(%esi,%eiz,1),%esi
  4044f7:	90                   	nop
  4044f8:	39 c5                	cmp    %eax,%ebp
  4044fa:	76 a9                	jbe    4044a5 <___mingw_memalign_realloc+0x65>
  4044fc:	eb a2                	jmp    4044a0 <___mingw_memalign_realloc+0x60>
  4044fe:	66 90                	xchg   %ax,%ax
  404500:	8b 7c 24 38          	mov    0x38(%esp),%edi
  404504:	eb c9                	jmp    4044cf <___mingw_memalign_realloc+0x8f>
  404506:	8d b4 26 00 00 00 00 	lea    0x0(%esi,%eiz,1),%esi
  40450d:	8d 76 00             	lea    0x0(%esi),%esi
  404510:	8b 6c 24 30          	mov    0x30(%esp),%ebp
  404514:	83 c4 1c             	add    $0x1c,%esp
  404517:	5b                   	pop    %ebx
  404518:	5e                   	pop    %esi
  404519:	89 e8                	mov    %ebp,%eax
  40451b:	5f                   	pop    %edi
  40451c:	5d                   	pop    %ebp
  40451d:	c3                   	ret    
  40451e:	90                   	nop
  40451f:	90                   	nop

00404520 <___register_frame_info>:
  404520:	ff 25 9c 92 40 00    	jmp    *0x40929c
  404526:	90                   	nop
  404527:	90                   	nop

00404528 <___deregister_frame_info>:
  404528:	ff 25 98 92 40 00    	jmp    *0x409298
  40452e:	90                   	nop
  40452f:	90                   	nop

00404530 <__Unwind_Resume>:
  404530:	ff 25 94 92 40 00    	jmp    *0x409294
  404536:	90                   	nop
  404537:	90                   	nop

00404538 <___chkstk_ms>:
  404538:	51                   	push   %ecx
  404539:	50                   	push   %eax
  40453a:	3d 00 10 00 00       	cmp    $0x1000,%eax
  40453f:	8d 4c 24 0c          	lea    0xc(%esp),%ecx
  404543:	72 15                	jb     40455a <___chkstk_ms+0x22>
  404545:	81 e9 00 10 00 00    	sub    $0x1000,%ecx
  40454b:	83 09 00             	orl    $0x0,(%ecx)
  40454e:	2d 00 10 00 00       	sub    $0x1000,%eax
  404553:	3d 00 10 00 00       	cmp    $0x1000,%eax
  404558:	77 eb                	ja     404545 <___chkstk_ms+0xd>
  40455a:	29 c1                	sub    %eax,%ecx
  40455c:	83 09 00             	orl    $0x0,(%ecx)
  40455f:	58                   	pop    %eax
  404560:	59                   	pop    %ecx
  404561:	c3                   	ret    
  404562:	90                   	nop
  404563:	90                   	nop

00404564 <_stricoll>:
  404564:	ff 25 04 92 40 00    	jmp    *0x409204
  40456a:	90                   	nop
  40456b:	90                   	nop

0040456c <_strdup>:
  40456c:	ff 25 00 92 40 00    	jmp    *0x409200
  404572:	90                   	nop
  404573:	90                   	nop

00404574 <_wcstombs>:
  404574:	ff 25 84 92 40 00    	jmp    *0x409284
  40457a:	90                   	nop
  40457b:	90                   	nop

0040457c <_vfprintf>:
  40457c:	ff 25 80 92 40 00    	jmp    *0x409280
  404582:	90                   	nop
  404583:	90                   	nop

00404584 <_tolower>:
  404584:	ff 25 7c 92 40 00    	jmp    *0x40927c
  40458a:	90                   	nop
  40458b:	90                   	nop

0040458c <_strlen>:
  40458c:	ff 25 78 92 40 00    	jmp    *0x409278
  404592:	90                   	nop
  404593:	90                   	nop

00404594 <_strcoll>:
  404594:	ff 25 74 92 40 00    	jmp    *0x409274
  40459a:	90                   	nop
  40459b:	90                   	nop

0040459c <_strcmp>:
  40459c:	ff 25 70 92 40 00    	jmp    *0x409270
  4045a2:	90                   	nop
  4045a3:	90                   	nop

004045a4 <_signal>:
  4045a4:	ff 25 6c 92 40 00    	jmp    *0x40926c
  4045aa:	90                   	nop
  4045ab:	90                   	nop

004045ac <_setlocale>:
  4045ac:	ff 25 68 92 40 00    	jmp    *0x409268
  4045b2:	90                   	nop
  4045b3:	90                   	nop

004045b4 <_memmove>:
  4045b4:	ff 25 64 92 40 00    	jmp    *0x409264
  4045ba:	90                   	nop
  4045bb:	90                   	nop

004045bc <_memcpy>:
  4045bc:	ff 25 60 92 40 00    	jmp    *0x409260
  4045c2:	90                   	nop
  4045c3:	90                   	nop

004045c4 <_mbstowcs>:
  4045c4:	ff 25 5c 92 40 00    	jmp    *0x40925c
  4045ca:	90                   	nop
  4045cb:	90                   	nop

004045cc <_malloc>:
  4045cc:	ff 25 58 92 40 00    	jmp    *0x409258
  4045d2:	90                   	nop
  4045d3:	90                   	nop

004045d4 <_fwrite>:
  4045d4:	ff 25 54 92 40 00    	jmp    *0x409254
  4045da:	90                   	nop
  4045db:	90                   	nop

004045dc <_calloc>:
  4045dc:	ff 25 50 92 40 00    	jmp    *0x409250
  4045e2:	90                   	nop
  4045e3:	90                   	nop

004045e4 <_abort>:
  4045e4:	ff 25 48 92 40 00    	jmp    *0x409248
  4045ea:	90                   	nop
  4045eb:	90                   	nop

004045ec <__setmode>:
  4045ec:	ff 25 44 92 40 00    	jmp    *0x409244
  4045f2:	90                   	nop
  4045f3:	90                   	nop

004045f4 <__msize>:
  4045f4:	ff 25 38 92 40 00    	jmp    *0x409238
  4045fa:	90                   	nop
  4045fb:	90                   	nop

004045fc <__isctype>:
  4045fc:	ff 25 34 92 40 00    	jmp    *0x409234
  404602:	90                   	nop
  404603:	90                   	nop

00404604 <__fullpath>:
  404604:	ff 25 2c 92 40 00    	jmp    *0x40922c
  40460a:	90                   	nop
  40460b:	90                   	nop

0040460c <__errno>:
  40460c:	ff 25 24 92 40 00    	jmp    *0x409224
  404612:	90                   	nop
  404613:	90                   	nop

00404614 <__cexit>:
  404614:	ff 25 20 92 40 00    	jmp    *0x409220
  40461a:	90                   	nop
  40461b:	90                   	nop

0040461c <___p__fmode>:
  40461c:	ff 25 18 92 40 00    	jmp    *0x409218
  404622:	90                   	nop
  404623:	90                   	nop

00404624 <___p__environ>:
  404624:	ff 25 14 92 40 00    	jmp    *0x409214
  40462a:	90                   	nop
  40462b:	90                   	nop

0040462c <___getmainargs>:
  40462c:	ff 25 0c 92 40 00    	jmp    *0x40920c
  404632:	90                   	nop
  404633:	90                   	nop

00404634 <_VirtualQuery@12>:
  404634:	ff 25 f8 91 40 00    	jmp    *0x4091f8
  40463a:	90                   	nop
  40463b:	90                   	nop

0040463c <_VirtualProtect@16>:
  40463c:	ff 25 f4 91 40 00    	jmp    *0x4091f4
  404642:	90                   	nop
  404643:	90                   	nop

00404644 <_TlsGetValue@4>:
  404644:	ff 25 f0 91 40 00    	jmp    *0x4091f0
  40464a:	90                   	nop
  40464b:	90                   	nop

0040464c <_SetUnhandledExceptionFilter@4>:
  40464c:	ff 25 ec 91 40 00    	jmp    *0x4091ec
  404652:	90                   	nop
  404653:	90                   	nop

00404654 <_LoadLibraryA@4>:
  404654:	ff 25 e8 91 40 00    	jmp    *0x4091e8
  40465a:	90                   	nop
  40465b:	90                   	nop

0040465c <_LeaveCriticalSection@4>:
  40465c:	ff 25 e4 91 40 00    	jmp    *0x4091e4
  404662:	90                   	nop
  404663:	90                   	nop

00404664 <_InitializeCriticalSection@4>:
  404664:	ff 25 e0 91 40 00    	jmp    *0x4091e0
  40466a:	90                   	nop
  40466b:	90                   	nop

0040466c <_GetProcAddress@8>:
  40466c:	ff 25 dc 91 40 00    	jmp    *0x4091dc
  404672:	90                   	nop
  404673:	90                   	nop

00404674 <_GetModuleHandleA@4>:
  404674:	ff 25 d8 91 40 00    	jmp    *0x4091d8
  40467a:	90                   	nop
  40467b:	90                   	nop

0040467c <_GetLastError@0>:
  40467c:	ff 25 d4 91 40 00    	jmp    *0x4091d4
  404682:	90                   	nop
  404683:	90                   	nop

00404684 <_GetCommandLineA@0>:
  404684:	ff 25 d0 91 40 00    	jmp    *0x4091d0
  40468a:	90                   	nop
  40468b:	90                   	nop

0040468c <_FreeLibrary@4>:
  40468c:	ff 25 cc 91 40 00    	jmp    *0x4091cc
  404692:	90                   	nop
  404693:	90                   	nop

00404694 <_FindNextFileA@8>:
  404694:	ff 25 c8 91 40 00    	jmp    *0x4091c8
  40469a:	90                   	nop
  40469b:	90                   	nop

0040469c <_FindFirstFileA@8>:
  40469c:	ff 25 c4 91 40 00    	jmp    *0x4091c4
  4046a2:	90                   	nop
  4046a3:	90                   	nop

004046a4 <_FindClose@4>:
  4046a4:	ff 25 c0 91 40 00    	jmp    *0x4091c0
  4046aa:	90                   	nop
  4046ab:	90                   	nop

004046ac <_ExitProcess@4>:
  4046ac:	ff 25 bc 91 40 00    	jmp    *0x4091bc
  4046b2:	90                   	nop
  4046b3:	90                   	nop

004046b4 <_EnterCriticalSection@4>:
  4046b4:	ff 25 b8 91 40 00    	jmp    *0x4091b8
  4046ba:	90                   	nop
  4046bb:	90                   	nop

004046bc <_DeleteCriticalSection@4>:
  4046bc:	ff 25 b4 91 40 00    	jmp    *0x4091b4
  4046c2:	90                   	nop
  4046c3:	90                   	nop

004046c4 <.text>:
  4046c4:	66 90                	xchg   %ax,%ax
  4046c6:	66 90                	xchg   %ax,%ax
  4046c8:	66 90                	xchg   %ax,%ax
  4046ca:	66 90                	xchg   %ax,%ax
  4046cc:	66 90                	xchg   %ax,%ax
  4046ce:	66 90                	xchg   %ax,%ax

004046d0 <_register_frame_ctor>:
  4046d0:	e9 5b cc ff ff       	jmp    401330 <___gcc_register_frame>
  4046d5:	90                   	nop
  4046d6:	90                   	nop
  4046d7:	90                   	nop
  4046d8:	90                   	nop
  4046d9:	90                   	nop
  4046da:	90                   	nop
  4046db:	90                   	nop
  4046dc:	90                   	nop
  4046dd:	90                   	nop
  4046de:	90                   	nop
  4046df:	90                   	nop

004046e0 <__CTOR_LIST__>:
  4046e0:	ff                   	(bad)  
  4046e1:	ff                   	(bad)  
  4046e2:	ff                   	(bad)  
  4046e3:	ff                   	.byte 0xff

004046e4 <.ctors>:
  4046e4:	4c                   	dec    %esp
  4046e5:	1b 40 00             	sbb    0x0(%eax),%eax

004046e8 <.ctors.65535>:
  4046e8:	d0 46 40             	rolb   0x40(%esi)
  4046eb:	00 00                	add    %al,(%eax)
  4046ed:	00 00                	add    %al,(%eax)
	...

004046f0 <__DTOR_LIST__>:
  4046f0:	ff                   	(bad)  
  4046f1:	ff                   	(bad)  
  4046f2:	ff                   	(bad)  
  4046f3:	ff 00                	incl   (%eax)
  4046f5:	00 00                	add    %al,(%eax)
	...

004046f8 <.gcc_except_table>:
  4046f8:	ff                   	(bad)  
  4046f9:	ff 01                	incl   (%ecx)
  4046fb:	0b fb                	or     %ebx,%edi
  4046fd:	02 05 8f 03 00 a0    	add    0xa000038f,%al
  404703:	03 05 00 00 ff ff    	add    0xffff0000,%eax
  404709:	01 0c 0d 05 00 00 20 	add    %ecx,0x20000005(,%ecx,1)
  404710:	13 42 00             	adc    0x0(%edx),%eax
  404713:	53                   	push   %ebx
  404714:	05 00 00 ff ff       	add    $0xffff0000,%eax
  404719:	01 0b                	add    %ecx,(%ebx)
  40471b:	9c                   	pushf  
  40471c:	01 05 b0 01 00 c1    	add    %eax,0xc10001b0
  404722:	01 05 00 00 ff ff    	add    %eax,0xffff0000
  404728:	01 0b                	add    %ecx,(%ebx)
  40472a:	95                   	xchg   %eax,%ebp
  40472b:	01 05 a9 01 00 ba    	add    %eax,0xba0001a9
  404731:	01 05 00 00 ff ff    	add    %eax,0xffff0000
  404737:	01 1b                	add    %ebx,(%ebx)
  404739:	6d                   	insl   (%dx),%es:(%edi)
  40473a:	05 00 00 7b 05       	add    $0x57b0000,%eax
  40473f:	b3 06                	mov    $0x6,%bl
  404741:	00 89 01 05 a2 06    	add    %cl,0x6a20501(%ecx)
  404747:	00 aa 01 9e 04 84    	add    %ch,-0x7bfb61ff(%edx)
  40474d:	06                   	push   %es
  40474e:	00 c7                	add    %al,%bh
  404750:	06                   	push   %es
  404751:	05                   	.byte 0x5
	...
